******************************************************************************
                  TI ARM Linker PC v15.12.3                    
******************************************************************************
>> Linked Sun Feb 25 22:09:27 2018

OUTPUT FILE NAME:   <HostTestStack.out>
ENTRY POINT SYMBOL: "startup_entry"  address: 00007001


MEMORY CONFIGURATION

         name            origin    length      used     unused   attr    fill
----------------------  --------  ---------  --------  --------  ----  --------
  FLASH                 00007000   00018000  00017c02  000003fe  R  X
  SRAM                  200043d8   0000050f  000004e3  0000002c  RW X
  $BOUND$0x20004fec     20004fec   00000010  00000010  00000000  R IX


SEGMENT ALLOCATION MAP

run origin  load origin   length   init length attrs members
----------  ----------- ---------- ----------- ----- -------
00007000    00007000    00015c04   00015c04    r-x
  00007000    00007000    0000002c   0000002c    r-x EntrySection
  0000702c    0000702c    00014f90   00014f90    r-x .text
  0001bfbc    0001bfbc    00000794   00000794    r-- .const
  0001c750    0001c750    000002de   000002de    r-- .rodata
  0001ca30    0001ca30    000001d4   000001d4    r-- .cinit
0001d000    0001d000    00002000   00002000    r--
  0001d000    0001d000    00002000   00002000    r-- .TI.bound:SNV_FLASH
200043d8    200043d8    000004e4   00000000    rw-
  200043d8    200043d8    0000038f   00000000    rw- .data
  20004768    20004768    00000154   00000000    rw- .bss
20004fec    20004fec    00000010   00000000    rw-
  20004fec    20004fec    00000010   00000000    rw- .TI.bound:mbIntCbackTable


SECTION ALLOCATION MAP

 output                                  attributes/
section   page    origin      length       input sections
--------  ----  ----------  ----------   ----------------
EntrySection 
*          0    00007000    0000002c     
                  00007000    0000002c     ICall_startup.obj (EntrySection)

.text      0    0000702c    00014f90     
                  0000702c    00002c84     bleDispatch.obj (.text)
                  00009cb0    000014e8     CC2640Stack.a : ll_PATCH.o (.text)
                  0000b198    0000115c                   : ll_common_PATCH.o (.text)
                  0000c2f4    00001044                   : gattservapp.o (.text)
                  0000d338    00000ed4                   : l2cap_util.o (.text)
                  0000e20c    00000d6a                   : gatt_client.o (.text)
                  0000ef76    00000002     hal_assert.obj (.text)
                  0000ef78    00000abe     CC2640Stack_HCI_TL.a : hci_tl.o (.text)
                  0000fa36    00000002     rtsv7M3_T_le_eabi.lib : startup.obj (.text)
                  0000fa38    00000a4c     CC2640Stack.a : gatt_server.o (.text)
                  00010484    000009f2                   : ble_PATCH.o (.text)
                  00010e76    00000002     --HOLE-- [fill = 0]
                  00010e78    0000093e                   : ll_slaveEndCauses_PATCH.o (.text)
                  000117b6    00000002     --HOLE-- [fill = 0]
                  000117b8    000008e0                   : gap_linkmgr.o (.text)
                  00012098    00000798     OSAL.obj (.text)
                  00012830    0000075c     CC2640Stack.a : sm_pairing.o (.text)
                  00012f8c    00000708                   : sm_mgr.o (.text)
                  00013694    000006d4                   : ll_sleep.o (.text)
                  00013d68    000006b2                   : ll_masterEndCauses_PATCH.o (.text)
                  0001441a    00000002     --HOLE-- [fill = 0]
                  0001441c    000006a4                   : ll_config.o (.text)
                  00014ac0    0000069c                   : gap_peridevmgr.o (.text)
                  0001515c    0000061c                   : ll_isr.o (.text)
                  00015778    000005b0                   : att_util.o (.text)
                  00015d28    0000056c                   : sm_intpairing.o (.text)
                  00016294    00000558                   : sm_rsppairing.o (.text)
                  000167ec    00000530                   : l2cap_task.o (.text)
                  00016d1c    0000051c                   : gap_centdevmgr.o (.text)
                  00017238    000004bc     osal_snv_wrapper.obj (.text)
                  000176f4    00000432     CC2640Stack.a : ll_advEndCauses_PATCH.o (.text)
                  00017b26    00000002     --HOLE-- [fill = 0]
                  00017b28    000003fc                   : l2cap_if.o (.text)
                  00017f24    000003dc                   : hci_event_PATCH.o (.text)
                  00018300    0000039a                   : smp.o (.text)
                  0001869a    00000002     --HOLE-- [fill = 0]
                  0001869c    0000037c                   : hci_PATCH.o (.text)
                  00018a18    0000036c     mb_PATCH.obj (.text)
                  00018d84    00000358     CC2640Stack.a : gap_configmgr.o (.text)
                  000190dc    00000336                   : ll_initEndCauses_PATCH.o (.text)
                  00019412    00000002     --HOLE-- [fill = 0]
                  00019414    00000308                   : gapgattserver.o (.text)
                  0001971c    000002fc                   : gatt_task.o (.text)
                  00019a18    00000294                   : linkdb.o (.text)
                  00019cac    0000028c                   : gap_task.o (.text)
                  00019f38    00000244     OSAL_Timers.obj (.text)
                  0001a17c    00000228     CC2640Stack.a : gap_centlinkmgr.o (.text)
                  0001a3a4    00000200     osal_cbtimer.obj (.text)
                  0001a5a4    000001f4     rtsv7M3_T_le_eabi.lib : ull_div_t2.obj (.text)
                  0001a798    000001ec     CC2640Stack.a : att_server.o (.text)
                  0001a984    000001a4                   : att_client.o (.text)
                  0001ab28    0000013e                   : gatt_uuid.o (.text)
                  0001ac66    00000002     --HOLE-- [fill = 0]
                  0001ac68    00000138                   : ll_scheduler_PATCH.o (.text)
                  0001ada0    0000010c                   : gap_perilinkmgr.o (.text)
                  0001aeac    0000010c     OSAL_ICallBle.obj (.text)
                  0001afb8    00000104     CC2640Stack.a : sm_task.o (.text)
                  0001b0bc    000000d8     gattservapp_util.obj (.text)
                  0001b194    000000d0     osal_bufmgr.obj (.text)
                  0001b264    000000a8     CC2640Stack.a : hci_data_PATCH.o (.text)
                  0001b30c    00000008     ble_rom_PATCH.symbols (.tramp.LL_CtrlToHostFlowControl.1)
                  0001b314    0000009c     rtsv7M3_T_le_eabi.lib : memcpy_t2.obj (.text)
                  0001b3b0    00000090     OSAL_PwrMgr.obj (.text)
                  0001b440    00000082     CC2640Stack.a : gap_devmgr.o (.text)
                  0001b4c2    0000007a     rtsv7M3_T_le_eabi.lib : memset_t2.obj (.text)
                  0001b53c    00000078     driverlib.lib : interrupt.obj (.text:NOROM_IntDisable)
                  0001b5b4    00000078                   : interrupt.obj (.text:NOROM_IntEnable)
                  0001b62c    00000070     rtsv7M3_T_le_eabi.lib : autoinit.obj (.text)
                  0001b69c    0000006a                           : copy_decompress_rle.obj (.text)
                  0001b706    00000002     --HOLE-- [fill = 0]
                  0001b708    00000068     OSAL_Clock.obj (.text)
                  0001b770    00000068     ROM_Init.obj (.text)
                  0001b7d8    00000064     hal_trng_wrapper.obj (.text)
                  0001b83c    00000064     npi.obj (.text)
                  0001b8a0    00000060     gap.obj (.text)
                  0001b900    00000054     bleUserConfig.obj (.text)
                  0001b954    00000054     hal_flash_wrapper.obj (.text)
                  0001b9a8    0000004c     rtsv7M3_T_le_eabi.lib : cpy_tbl.obj (.text)
                  0001b9f4    00000044     OSAL_MemoryICall.obj (.text)
                  0001ba38    00000030     CommonROM_Init.obj (.text)
                  0001ba68    00000026     driverlib.lib : trng.obj (.text:NOROM_TRNGConfigure)
                  0001ba8e    0000001e                   : flash.obj (.text:NOROM_FlashProgram)
                  0001baac    0000001e                   : flash.obj (.text:NOROM_FlashSectorErase)
                  0001baca    00000018     rtsv7M3_T_le_eabi.lib : ll_mul_t2.obj (.text)
                  0001bae2    00000016     driverlib.lib : vims.obj (.text:NOROM_VIMSModeGet)
                  0001baf8    00000014     OnBoard.obj (.text)
                  0001bb0c    00000008     ble_rom_PATCH.symbols (.tramp.LL_PseudoRand.1)
                  0001bb14    00000014     rtsv7M3_T_le_eabi.lib : strlen.obj (.text)
                  0001bb28    0000000e                           : copy_decompress_none.obj (.text:decompress:none)
                  0001bb36    0000000c     driverlib.lib : cpu.obj (.text:NOROM_CPUcpsid)
                  0001bb42    0000000c                   : cpu.obj (.text:NOROM_CPUcpsie)
                  0001bb4e    00000006     rtsv7M3_T_le_eabi.lib : copy_decompress_rle.obj (.text:decompress:rle24)
                  0001bb54    00000008     ble_rom_PATCH.symbols (.tramp.LL_ReadLocalVersionInfo.1)
                  0001bb5c    00000008     ble_rom_PATCH.symbols (.tramp.LL_EXT_ResetSystem.1)
                  0001bb64    00000008     ble_rom_PATCH.symbols (.tramp.HCI_CommandStatusEvent.1)
                  0001bb6c    00000008     ble_rom_PATCH.symbols (.tramp.HCI_SendCommandCompleteEvent.1)
                  0001bb74    00000008     ble_rom_PATCH.symbols (.tramp.llCalcScaFactor.1)
                  0001bb7c    00000008     ble_rom_PATCH.symbols (.tramp.LL_ENC_Decrypt.1)
                  0001bb84    00000008     ble_rom_PATCH.symbols (.tramp.llProcessScanRxFIFO.1)
                  0001bb8c    00000008     ble_rom_PATCH.symbols (.tramp.llSetupPauseEncReq.1)
                  0001bb94    00000008     ble_rom_PATCH.symbols (.tramp.llSetupEncReq.1)
                  0001bb9c    00000008     ble_rom_PATCH.symbols (.tramp.llSetupUpdateParamReq.1)
                  0001bba4    00000008     ble_rom_PATCH.symbols (.tramp.llPatchCM0.1)
                  0001bbac    00000008     ble_rom_PATCH.symbols (.tramp.LL_Encrypt.1)
                  0001bbb4    00000008     ble_rom_PATCH.symbols (.tramp.llSetupVersionIndReq.1)
                  0001bbbc    00000008     ble_rom_PATCH.symbols (.tramp.LL_ReadRemoteVersionInfoCback.1)
                  0001bbc4    00000008     ble_rom_PATCH.symbols (.tramp.llSetupPauseEncRsp.1)
                  0001bbcc    00000008     ble_rom_PATCH.symbols (.tramp.llSetupStartEncRsp.1)
                  0001bbd4    00000008     ble_rom_PATCH.symbols (.tramp.llSetupStartEncReq.1)
                  0001bbdc    00000008     ble_rom_PATCH.symbols (.tramp.llSetupEncRsp.1)
                  0001bbe4    00000008     ble_rom_PATCH.symbols (.tramp.LL_EncLtkReqCback.1)
                  0001bbec    00000008     ble_rom_PATCH.symbols (.tramp.llEventInRange.1)
                  0001bbf4    00000008     ble_rom_PATCH.symbols (.tramp.llCheckForLstoDuringSL.1)
                  0001bbfc    00000008     ble_rom_PATCH.symbols (.tramp.llConnTerminate.1)
                  0001bc04    00000008     ble_rom_PATCH.symbols (.tramp.llGetNumTxDataEntries.1)
                  0001bc0c    00000008     ble_rom_PATCH.symbols (.tramp.llMoveTempTxDataEntries.1)
                  0001bc14    00000008     ble_rom_PATCH.symbols (.tramp.LL_EncChangeCback.1)
                  0001bc1c    00000008     ble_rom_PATCH.symbols (.tramp.LL_EncKeyRefreshCback.1)
                  0001bc24    00000008     ble_rom_PATCH.symbols (.tramp.LL_ENC_AES128_Encrypt.1)
                  0001bc2c    00000008     ble_rom_PATCH.symbols (.tramp.LL_ENC_ReverseBytes.1)
                  0001bc34    00000008     ble_rom_PATCH.symbols (.tramp.llSetupUnknownRsp.1)
                  0001bc3c    00000008     ble_rom_PATCH.symbols (.tramp.llMemCopySrc.1)
                  0001bc44    00000008     ble_rom_PATCH.symbols (.tramp.HCI_EXT_SaveFreqTuneCmd.1)
                  0001bc4c    00000008     ble_rom_PATCH.symbols (.tramp.HCI_EXT_SetFreqTuneCmd.1)
                  0001bc54    00000008     ble_rom_PATCH.symbols (.tramp.HCI_EXT_DeclareNvUsageCmd.1)
                  0001bc5c    00000008     ble_rom_PATCH.symbols (.tramp.HCI_EXT_ClkDivOnHaltCmd.1)
                  0001bc64    00000008     ble_rom_PATCH.symbols (.tramp.HCI_EXT_OverlappedProcessingCmd.1)
                  0001bc6c    00000008     ble_rom_PATCH.symbols (.tramp.HCI_EXT_MapPmIoPortCmd.1)
                  0001bc74    00000008     ble_rom_PATCH.symbols (.tramp.HCI_EXT_HaltDuringRfCmd.1)
                  0001bc7c    00000008     ble_rom_PATCH.symbols (.tramp.HCI_EXT_ExtendRfRangeCmd.1)
                  0001bc84    00000008     ble_rom_PATCH.symbols (.tramp.HCI_EXT_SetRxGainCmd.1)
                  0001bc8c    00000008     ble_rom_PATCH.symbols (.tramp.HCI_LE_LtkReqNegReplyCmd.1)
                  0001bc94    00000008     ble_rom_PATCH.symbols (.tramp.HCI_LE_LtkReqReplyCmd.1)
                  0001bc9c    00000008     ble_rom_PATCH.symbols (.tramp.HCI_LE_StartEncyptCmd.1)
                  0001bca4    00000008     ble_rom_PATCH.symbols (.tramp.HCI_LE_RandCmd.1)
                  0001bcac    00000008     ble_rom_PATCH.symbols (.tramp.HCI_ReverseBytes.1)
                  0001bcb4    00000008     ble_rom_PATCH.symbols (.tramp.HCI_LE_CreateConnCancelCmd.1)
                  0001bcbc    00000008     ble_rom_PATCH.symbols (.tramp.HCI_LE_CreateConnCmd.1)
                  0001bcc4    00000008     ble_rom_PATCH.symbols (.tramp.HCI_LE_SetScanEnableCmd.1)
                  0001bccc    00000008     ble_rom_PATCH.symbols (.tramp.HCI_LE_SetScanParamCmd.1)
                  0001bcd4    00000008     ble_rom_PATCH.symbols (.tramp.HCI_LE_SetAdvEnableCmd.1)
                  0001bcdc    00000008     ble_rom_PATCH.symbols (.tramp.HCI_LE_SetScanRspDataCmd.1)
                  0001bce4    00000008     ble_rom_PATCH.symbols (.tramp.HCI_LE_SetAdvDataCmd.1)
                  0001bcec    00000008     ble_rom_PATCH.symbols (.tramp.HCI_LE_SetAdvParamCmd.1)
                  0001bcf4    00000008     ble_rom_PATCH.symbols (.tramp.HCI_LE_SetRandomAddressCmd.1)
                  0001bcfc    00000008     ble_rom_PATCH.symbols (.tramp.HCI_HostNumCompletedPktCmd.1)
                  0001bd04    00000008     ble_rom_PATCH.symbols (.tramp.HCI_HostBufferSizeCmd.1)
                  0001bd0c    00000008     ble_rom_PATCH.symbols (.tramp.HCI_SetControllerToHostFlowCtrlCmd.1)
                  0001bd14    00000008     ble_rom_PATCH.symbols (.tramp.HCI_DisconnectCmd.1)
                  0001bd1c    00000008     ble_rom_PATCH.symbols (.tramp.HCI_CommandCompleteEvent.1)
                  0001bd24    00000008     ble_rom_PATCH.symbols (.tramp.HCI_SendDataPkt.1)
                  0001bd2c    00000008     ble_rom_PATCH.symbols (.tramp.llSetupRejectInd.1)
                  0001bd34    00000008     ble_rom_PATCH.symbols (.tramp.WL_FindEntry.1)
                  0001bd3c    00000008     ble_rom_PATCH.symbols (.tramp.LL_RX_bm_alloc.1)
                  0001bd44    00000008     ble_rom_PATCH.symbols (.tramp.llConvertCtrlProcTimeoutToEvent.1)
                  0001bd4c    00000008     ble_rom_PATCH.symbols (.tramp.llConvertLstoToEvent.1)
                  0001bd54    00000008     ble_rom_PATCH.symbols (.tramp.llTimeDelta.1)
                  0001bd5c    00000008     ble_rom_PATCH.symbols (.tramp.llTimeCompare.1)
                  0001bd64    00000008     ble_rom_PATCH.symbols (.tramp.LL_ENC_Encrypt.1)
                  0001bd6c    00000008     ble_rom_PATCH.symbols (.tramp.LL_TX_bm_alloc.1)
                  0001bd74    00000008     ble_rom_PATCH.symbols (.tramp.llEventDelta.1)
                  0001bd7c    00000008     ble_rom_PATCH.symbols (.tramp.llAtLeastTwoChans.1)
                  0001bd84    00000008     ble_rom_PATCH.symbols (.tramp.llSetupConn.1)
                  0001bd8c    00000008     ble_rom_PATCH.symbols (.tramp.llSetupInit.1)
                  0001bd94    00000008     ble_rom_PATCH.symbols (.tramp.llGenerateValidAccessAddr.1)
                  0001bd9c    00000008     ble_rom_PATCH.symbols (.tramp.llGenerateCRC.1)
                  0001bda4    00000008     ble_rom_PATCH.symbols (.tramp.llReleaseConnId.1)
                  0001bdac    00000008     ble_rom_PATCH.symbols (.tramp.llPendingUpdateParam.1)
                  0001bdb4    00000008     ble_rom_PATCH.symbols (.tramp.llFreeTask.1)
                  0001bdbc    00000008     ble_rom_PATCH.symbols (.tramp.llGetNumTasks.1)
                  0001bdc4    00000008     ble_rom_PATCH.symbols (.tramp.llScheduler.1)
                  0001bdcc    00000008     ble_rom_PATCH.symbols (.tramp.llSetupAdv.1)
                  0001bdd4    00000008     ble_rom_PATCH.symbols (.tramp.LL_DirectTestEndDoneCback.1)
                  0001bddc    00000008     ble_rom_PATCH.symbols (.tramp.llRfStartFS.1)
                  0001bde4    00000008     ble_rom_PATCH.symbols (.tramp.llWriteTxData.1)
                  0001bdec    00000008     ble_rom_PATCH.symbols (.tramp.HCI_DataBufferOverflowEvent.1)
                  0001bdf4    00000008     ble_rom_PATCH.symbols (.tramp.LL_ENC_GenerateTrueRandNum.1)
                  0001bdfc    00000008     ble_rom_PATCH.symbols (.tramp.llEnqueueCtrlPkt.1)
                  0001be04    00000008     ble_rom_PATCH.symbols (.tramp.LL_ENC_GenDeviceIV.1)
                  0001be0c    00000008     ble_rom_PATCH.symbols (.tramp.LL_ENC_GenDeviceSKD.1)
                  0001be14    00000008     ble_rom_PATCH.symbols (.tramp.LL_ConnActive.1)
                  0001be1c    00000008     ble_rom_PATCH.symbols (.tramp.llReleaseAllConnId.1)
                  0001be24    00000008     ble_rom_PATCH.symbols (.tramp.LL_ClearWhiteList.1)
                  0001be2c    00000008     ble_rom_PATCH.symbols (.tramp.LL_ENC_Init.1)
                  0001be34    00000008     ble_rom_PATCH.symbols (.tramp.WL_Init.1)
                  0001be3c    00000008     ble_rom_PATCH.symbols (.tramp.llHaltRadio.1)
                  0001be44    00000008     ble_rom_PATCH.symbols (.tramp.HCI_HardwareErrorEvent.1)
                  0001be4c    00000008     ble_rom_PATCH.symbols (.tramp.LL_ConnectionCompleteCback.1)
                  0001be54    00000008     ble_rom_PATCH.symbols (.tramp.llGetCurrentTask.1)
                  0001be5c    00000008     ble_rom_PATCH.symbols (.tramp.llInitRAT.1)
                  0001be64    00000008     ble_rom_PATCH.symbols (.tramp.llGetCurrentTime.1)
                  0001be6c    00000008     ble_rom_PATCH.symbols (.tramp.llSetupRfHal.1)
                  0001be74    00000008     ble_rom_PATCH.symbols (.tramp.llSetupMailbox.1)
                  0001be7c    00000008     ble_rom_PATCH.symbols (.tramp.llResetRadio.1)
                  0001be84    00000008     ble_rom_PATCH.symbols (.tramp.HCI_bm_alloc.1)
                  0001be8c    00000008     ble_rom_PATCH.symbols (.tramp.HCI_ReadRemoteVersionInfoCmd.1)
                  0001be94    00000008     ble_rom_PATCH.symbols (.tramp.HCI_SetEventMaskCmd.1)
                  0001be9c    00000008     ble_rom_PATCH.symbols (.tramp.HCI_ReadTransmitPowerLevelCmd.1)
                  0001bea4    00000008     ble_rom_PATCH.symbols (.tramp.HCI_ReadLocalSupportedFeaturesCmd.1)
                  0001beac    00000008     ble_rom_PATCH.symbols (.tramp.HCI_ReadBDADDRCmd.1)
                  0001beb4    00000008     ble_rom_PATCH.symbols (.tramp.HCI_ReadRssiCmd.1)
                  0001bebc    00000008     ble_rom_PATCH.symbols (.tramp.HCI_LE_ReadLocalSupportedFeaturesCmd.1)
                  0001bec4    00000008     ble_rom_PATCH.symbols (.tramp.HCI_LE_ReadAdvChanTxPowerCmd.1)
                  0001becc    00000008     ble_rom_PATCH.symbols (.tramp.HCI_LE_ReadWhiteListSizeCmd.1)
                  0001bed4    00000008     ble_rom_PATCH.symbols (.tramp.HCI_LE_ClearWhiteListCmd.1)
                  0001bedc    00000008     ble_rom_PATCH.symbols (.tramp.HCI_LE_AddWhiteListCmd.1)
                  0001bee4    00000008     ble_rom_PATCH.symbols (.tramp.HCI_LE_RemoveWhiteListCmd.1)
                  0001beec    00000008     ble_rom_PATCH.symbols (.tramp.HCI_LE_SetHostChanClassificationCmd.1)
                  0001bef4    00000008     ble_rom_PATCH.symbols (.tramp.HCI_LE_ReadChannelMapCmd.1)
                  0001befc    00000008     ble_rom_PATCH.symbols (.tramp.HCI_LE_EncryptCmd.1)
                  0001bf04    00000008     ble_rom_PATCH.symbols (.tramp.HCI_LE_ReadSupportedStatesCmd.1)
                  0001bf0c    00000008     ble_rom_PATCH.symbols (.tramp.HCI_LE_TestEndCmd.1)
                  0001bf14    00000008     ble_rom_PATCH.symbols (.tramp.HCI_EXT_SetTxPowerCmd.1)
                  0001bf1c    00000008     ble_rom_PATCH.symbols (.tramp.HCI_EXT_OnePktPerEvtCmd.1)
                  0001bf24    00000008     ble_rom_PATCH.symbols (.tramp.HCI_EXT_DecryptCmd.1)
                  0001bf2c    00000008     ble_rom_PATCH.symbols (.tramp.HCI_EXT_SetLocalSupportedFeaturesCmd.1)
                  0001bf34    00000008     ble_rom_PATCH.symbols (.tramp.HCI_EXT_SetFastTxResponseTimeCmd.1)
                  0001bf3c    00000008     ble_rom_PATCH.symbols (.tramp.HCI_EXT_ModemTestTxCmd.1)
                  0001bf44    00000008     ble_rom_PATCH.symbols (.tramp.HCI_EXT_ModemHopTestTxCmd.1)
                  0001bf4c    00000008     ble_rom_PATCH.symbols (.tramp.HCI_EXT_ModemTestRxCmd.1)
                  0001bf54    00000008     ble_rom_PATCH.symbols (.tramp.HCI_EXT_EndModemTestCmd.1)
                  0001bf5c    00000008     ble_rom_PATCH.symbols (.tramp.HCI_EXT_SetBDADDRCmd.1)
                  0001bf64    00000008     ble_rom_PATCH.symbols (.tramp.HCI_EXT_SetSCACmd.1)
                  0001bf6c    00000008     ble_rom_PATCH.symbols (.tramp.HCI_EXT_EnablePTMCmd.1)
                  0001bf74    00000008     ble_rom_PATCH.symbols (.tramp.HCI_EXT_SetMaxDtmTxPowerCmd.1)
                  0001bf7c    00000008     ble_rom_PATCH.symbols (.tramp.HCI_EXT_DisconnectImmedCmd.1)
                  0001bf84    00000008     ble_rom_PATCH.symbols (.tramp.HCI_EXT_PacketErrorRateCmd.1)
                  0001bf8c    00000008     ble_rom_PATCH.symbols (.tramp.HCI_EXT_PERbyChanCmd.1)
                  0001bf94    00000008     ble_rom_PATCH.symbols (.tramp.HCI_EXT_AdvEventNoticeCmd.1)
                  0001bf9c    00000008     ble_rom_PATCH.symbols (.tramp.HCI_EXT_SetSlaveLatencyOverrideCmd.1)
                  0001bfa4    00000008     ble_rom_PATCH.symbols (.tramp.HCI_EXT_BuildRevisionCmd.1)
                  0001bfac    00000008     ble_rom_PATCH.symbols (.tramp.HCI_EXT_NumComplPktsLimitCmd.1)
                  0001bfb4    00000008     ble_rom_PATCH.symbols (.tramp.HCI_SendControllerToHostEvent.1)

.const     0    0001bfbc    00000794     
                  0001bfbc    00000664     ROM_Init.obj (.const:$O12$$)
                  0001c620    0000010c     CommonROM_Init.obj (.const:$O10$$)
                  0001c72c    00000024     OSAL_ICallBle.obj (.const:tasksArr)

.rodata    0    0001c750    000002de     
                  0001c750    00000270     CC2640Stack_HCI_TL.a : hci_tl.o (.rodata)
                  0001c9c0    0000005c     CC2640Stack.a : ll_config.o (.rodata)
                  0001ca1c    00000008                   : gapgattserver.o (.rodata)
                  0001ca24    00000008                   : gattservapp.o (.rodata)
                  0001ca2c    00000002                   : ll_PATCH.o (.rodata)

.cinit     0    0001ca30    000001d4     
                  0001ca30    00000192     (.cinit..data.load) [load image, compression = rle]
                  0001cbc2    00000006     --HOLE-- [fill = 0]
                  0001cbc8    0000000b     (.cinit..bss.load) [load image, compression = rle]
                  0001cbd3    00000005     --HOLE-- [fill = 0]
                  0001cbd8    00000009     (.cinit..TI.bound:mbIntCbackTable.load) [load image, compression = rle]
                  0001cbe1    00000003     --HOLE-- [fill = 0]
                  0001cbe4    00000008     (__TI_handler_table)
                  0001cbec    00000018     (__TI_cinit_table)

.init_array 
*          0    00007000    00000000     UNINITIALIZED

.TI.bound:SNV_FLASH 
*          0    0001d000    00002000     
                  0001d000    00002000     osal_snv_wrapper.obj (.TI.bound:SNV_FLASH)

.data      0    200043d8    0000038f     UNINITIALIZED
                  200043d8    00000090     bleDispatch.obj (.data:$O2$$)
                  20004468    0000007c     osal_cbtimer.obj (.data:$O7$$)
                  200044e4    00000070     CC2640Stack.a : gapgattserver.o (.data)
                  20004554    00000050                   : gap_configmgr.o (.data)
                  200045a4    00000040                   : gattservapp.o (.data)
                  200045e4    0000003c                   : ll_sleep.o (.data)
                  20004620    0000002c     OSAL.obj (.data:$O3$$)
                  2000464c    0000002c     CC2640Stack.a : gap_configmgr.o (.data)
                  20004678    00000024                   : gapgattserver.o (.data)
                  2000469c    0000001c                   : gap_linkmgr.o (.data)
                  200046b8    0000001c                   : gap_peridevmgr.o (.data)
                  200046d4    00000014                   : l2cap_task.o (.data)
                  200046e8    00000010                   : gap_centdevmgr.o (.data)
                  200046f8    00000010                   : ll_config.o (.data)
                  20004708    0000000c                   : gap_task.o (.data)
                  20004714    0000000c                   : ll_common_PATCH.o (.data)
                  20004720    0000000c                   : sm_intpairing.o (.data)
                  2000472c    0000000c                   : sm_rsppairing.o (.data)
                  20004738    00000008     OSAL_Clock.obj (.data:$O4$$)
                  20004740    00000008     CC2640Stack.a : gap_centlinkmgr.o (.data)
                  20004748    00000008                   : gatt_server.o (.data)
                  20004750    00000004     OSAL_PwrMgr.obj (.data:$O5$$)
                  20004754    00000004     CC2640Stack.a : gap_perilinkmgr.o (.data)
                  20004758    00000004     osal_bufmgr.obj (.data)
                  2000475c    00000002     CC2640Stack.a : l2cap_task.o (.data)
                  2000475e    00000001                   : gapgattserver.o (.data)
                  2000475f    00000001                   : gapgattserver.o (.data)
                  20004760    00000001                   : gapgattserver.o (.data)
                  20004761    00000001                   : gatt_client.o (.data)
                  20004762    00000001                   : gatt_server.o (.data)
                  20004763    00000001                   : gatt_task.o (.data)
                  20004764    00000001                   : gattservapp.o (.data)
                  20004765    00000001                   : gattservapp.o (.data)
                  20004766    00000001     npi.obj (.data)

.bss       0    20004768    00000154     UNINITIALIZED
                  20004768    00000038     CC2640Stack.a : linkdb.o (.bss)
                  200047a0    00000030                   : l2cap_task.o (.bss)
                  200047d0    00000028                   : gattservapp.o (.bss)
                  200047f8    0000001c                   : ll_PATCH.o (.bss)
                  20004814    00000018                   : ll_sleep.o (.bss)
                  2000482c    00000010                   : hci_event_PATCH.o (.bss)
                  2000483c    0000000c     ICall_startup.obj (.bss:$O11$$)
                  20004848    0000000c     CC2640Stack.a : sm_pairing.o (.bss)
                  20004854    00000008     OSAL_Timers.obj (.bss:$O6$$)
                  2000485c    00000008     osal_snv_wrapper.obj (.bss:$O8$$)
                  20004864    00000008     CC2640Stack.a : gatt_task.o (.bss)
                  2000486c    00000004                   : att_client.o (.bss)
                  20004870    00000004                   : att_server.o (.bss)
                  20004874    00000004                   : ble_PATCH.o (.bss)
                  20004878    00000004                   : ble_PATCH.o (.bss)
                  2000487c    00000004                   : gap_devmgr.o (.bss)
                  20004880    00000004                   : gap_devmgr.o (.bss)
                  20004884    00000004                   : gap_linkmgr.o (.bss)
                  20004888    00000004                   : gapgattserver.o (.bss)
                  2000488c    00000004                   : gatt_client.o (.bss)
                  20004890    00000004                   : gatt_server.o (.bss)
                  20004894    00000004                   : gattservapp.o (.bss)
                  20004898    00000004                   : sm_mgr.o (.bss)
                  2000489c    00000004     hal_trng_wrapper.obj (.bss)
                  200048a0    00000004     (.common:tasksEvents)
                  200048a4    00000002     CC2640Stack.a : gap_peridevmgr.o (.bss)
                  200048a6    00000002                   : gatt_task.o (.bss)
                  200048a8    00000002                   : ll_slaveEndCauses_PATCH.o (.bss)
                  200048aa    00000002     CC2640Stack_HCI_TL.a : hci_tl.o (.bss)
                  200048ac    00000002                          : hci_tl.o (.bss)
                  200048ae    00000001     CC2640Stack.a : l2cap_if.o (.bss)
                  200048af    00000001                   : l2cap_util.o (.bss)
                  200048b0    00000001                   : l2cap_util.o (.bss)
                  200048b1    00000001                   : ll_common_PATCH.o (.bss)
                  200048b2    00000001                   : ll_sleep.o (.bss)
                  200048b3    00000001                   : sm_task.o (.bss)
                  200048b4    00000001     CC2640Stack_HCI_TL.a : hci_tl.o (.bss)
                  200048b5    00000001                          : hci_tl.o (.bss)
                  200048b6    00000001                          : hci_tl.o (.bss)
                  200048b7    00000001                          : hci_tl.o (.bss)
                  200048b8    00000001                          : hci_tl.o (.bss)
                  200048b9    00000001                          : hci_tl.o (.bss)
                  200048ba    00000001                          : hci_tl.o (.bss)
                  200048bb    00000001                          : hci_tl.o (.bss)

.TI.bound:mbIntCbackTable 
*          0    20004fec    00000010     UNINITIALIZED
                  20004fec    00000010     mb_PATCH.obj (.TI.bound:mbIntCbackTable)

MODULE SUMMARY

       Module                       code    ro data   rw data
       ------                       ----    -------   -------
    .\HAL\Common\
       hal_assert.obj               2       0         0      
    +--+----------------------------+-------+---------+---------+
       Total:                       2       0         0      
                                                             
    .\HAL\Target\CC2650\Drivers\
       hal_trng_wrapper.obj         100     0         4      
       hal_flash_wrapper.obj        84      0         0      
    +--+----------------------------+-------+---------+---------+
       Total:                       184     0         4      
                                                             
    .\HAL\Target\CC2650\_common\
       mb_PATCH.obj                 876     0         16     
    +--+----------------------------+-------+---------+---------+
       Total:                       876     0         16     
                                                             
    .\ICallBLE\
       bleDispatch.obj              11396   0         144    
    +--+----------------------------+-------+---------+---------+
       Total:                       11396   0         144    
                                                             
    .\NPI\
       npi.obj                      100     0         1      
    +--+----------------------------+-------+---------+---------+
       Total:                       100     0         1      
                                                             
    .\OSAL\
       osal_snv_wrapper.obj         1212    8192      8      
       OSAL.obj                     1944    0         44     
       osal_cbtimer.obj             512     0         124    
       OSAL_Timers.obj              580     0         8      
       osal_bufmgr.obj              208     0         4      
       OSAL_PwrMgr.obj              144     0         4      
       OSAL_Clock.obj               104     0         8      
       OSAL_MemoryICall.obj         68      0         0      
    +--+----------------------------+-------+---------+---------+
       Total:                       4772    8192      200    
                                                             
    .\PROFILES\
       gattservapp_util.obj         216     0         0      
       gap.obj                      96      0         0      
    +--+----------------------------+-------+---------+---------+
       Total:                       312     0         0      
                                                             
    .\Startup\
       ROM_Init.obj                 104     1636      0      
       CommonROM_Init.obj           48      268       0      
       OSAL_ICallBle.obj            268     36        0      
       bleUserConfig.obj            84      0         0      
       ICall_startup.obj            44      0         12     
    +--+----------------------------+-------+---------+---------+
       Total:                       548     1940      12     
                                                             
    .\TOOLS\
       OnBoard.obj                  20      0         0      
    +--+----------------------------+-------+---------+---------+
       Total:                       20      0         0      
                                                             
    C:\Users\Jian\AppData\Local\Temp\
       134162                       0       0         4      
    +--+----------------------------+-------+---------+---------+
       Total:                       0       0         4      
                                                             
    C:\ti\simplelink\ble_cc26xx_2_01_01_44627\Projects\common\BLE_ROM_Releases\04242014\
       ble_rom_PATCH.symbols        1144    0         0      
    +--+----------------------------+-------+---------+---------+
       Total:                       1144    0         0      
                                                             
    C:/ti/simplelink/ble_cc26xx_2_01_01_44627/Projects/ble/HostTest/CC26xx/IAR/Lib/CC2640Stack.a
       ll_PATCH.o                   5352    2         28     
       ll_common_PATCH.o            4444    0         13     
       gattservapp.o                4164    8         110    
       l2cap_util.o                 3796    0         2      
       gatt_client.o                3434    0         5      
       gatt_server.o                2636    0         13     
       ble_PATCH.o                  2546    0         8      
       ll_slaveEndCauses_PATCH.o    2366    0         2      
       gap_linkmgr.o                2272    0         32     
       sm_pairing.o                 1884    0         12     
       ll_sleep.o                   1748    0         85     
       ll_config.o                  1700    92        16     
       sm_mgr.o                     1800    0         4      
       gap_peridevmgr.o             1692    0         30     
       ll_masterEndCauses_PATCH.o   1714    0         0      
       ll_isr.o                     1564    0         0      
       att_util.o                   1456    0         0      
       sm_intpairing.o              1388    0         12     
       l2cap_task.o                 1328    0         70     
       sm_rsppairing.o              1368    0         12     
       gap_centdevmgr.o             1308    0         16     
       ll_advEndCauses_PATCH.o      1074    0         0      
       l2cap_if.o                   1020    0         1      
       hci_event_PATCH.o            988     0         16     
       gap_configmgr.o              856     0         124    
       gapgattserver.o              776     8         155    
       smp.o                        922     0         0      
       hci_PATCH.o                  892     0         0      
       ll_initEndCauses_PATCH.o     822     0         0      
       gatt_task.o                  764     0         11     
       linkdb.o                     660     0         56     
       gap_task.o                   652     0         12     
       gap_centlinkmgr.o            552     0         8      
       att_server.o                 492     0         4      
       att_client.o                 420     0         4      
       gatt_uuid.o                  318     0         0      
       ll_scheduler_PATCH.o         312     0         0      
       gap_perilinkmgr.o            268     0         4      
       sm_task.o                    260     0         1      
       hci_data_PATCH.o             168     0         0      
       gap_devmgr.o                 130     0         8      
    +--+----------------------------+-------+---------+---------+
       Total:                       62306   110       874    
                                                             
    C:/ti/simplelink/ble_cc26xx_2_01_01_44627/Projects/ble/HostTest/CC26xx/IAR/Lib/CC2640Stack_HCI_TL.a
       hci_tl.o                     2750    624       12     
    +--+----------------------------+-------+---------+---------+
       Total:                       2750    624       12     
                                                             
    C:/ti/tirtos_simplelink_2_13_00_06/products/cc26xxware_2_21_01_15600/driverlib/bin/ccs/driverlib.lib
       interrupt.obj                240     0         0      
       flash.obj                    60      0         0      
       trng.obj                     38      0         0      
       cpu.obj                      24      0         0      
       vims.obj                     22      0         0      
    +--+----------------------------+-------+---------+---------+
       Total:                       384     0         0      
                                                             
    C:\ti\ccsv6\tools\compiler\arm_15.12.3.LTS\lib\rtsv7M3_T_le_eabi.lib
       ull_div_t2.obj               500     0         0      
       memcpy_t2.obj                156     0         0      
       memset_t2.obj                122     0         0      
       autoinit.obj                 112     0         0      
       copy_decompress_rle.obj      112     0         0      
       cpy_tbl.obj                  76      0         0      
       ll_mul_t2.obj                24      0         0      
       strlen.obj                   20      0         0      
       copy_decompress_none.obj     14      0         0      
       startup.obj                  2       0         0      
    +--+----------------------------+-------+---------+---------+
       Total:                       1138    0         0      
                                                             
       Linker Generated:            0       454       0      
    +--+----------------------------+-------+---------+---------+
       Grand Total:                 85932   11320     1267   


LINKER GENERATED COPY TABLES

__TI_cinit_table @ 0001cbec records: 3, size/record: 8, table size: 24
	.data: load addr=0001ca30, load size=00000192 bytes, run addr=200043d8, run size=0000038f bytes, compression=rle
	.bss: load addr=0001cbc8, load size=0000000b bytes, run addr=20004768, run size=00000154 bytes, compression=rle
	.TI.bound:mbIntCbackTable: load addr=0001cbd8, load size=00000009 bytes, run addr=20004fec, run size=00000010 bytes, compression=rle


LINKER GENERATED HANDLER TABLE

__TI_handler_table @ 0001cbe4 records: 2, size/record: 4, table size: 8
	index: 0, handler: __TI_decompress_rle24
	index: 1, handler: __TI_decompress_none


FAR CALL TRAMPOLINES

callee name               trampoline name
   callee addr  tramp addr   call addr  call info
--------------  -----------  ---------  ----------------
LL_CtrlToHostFlowControl  $Tramp$TT$L$PI$$LL_CtrlToHostFlowControl
   100058d5     0001b30c     0001b286   CC2640Stack.a : hci_data_PATCH.o (.text)
LL_PseudoRand             $Tramp$TT$L$PI$$LL_PseudoRand
   10005801     0001bb0c     0001bb02   OnBoard.obj (.text)
LL_ReadLocalVersionInfo   $Tramp$TT$L$PI$$LL_ReadLocalVersionInfo
   1000589d     0001bb54     00018988   CC2640Stack.a : hci_PATCH.o (.text)
LL_EXT_ResetSystem        $Tramp$TT$L$PI$$LL_EXT_ResetSystem
   100070d5     0001bb5c     00018902   CC2640Stack.a : hci_PATCH.o (.text)
HCI_CommandStatusEvent    $Tramp$TT$L$PI$$HCI_CommandStatusEvent
   10008ba1     0001bb64     00018862   CC2640Stack.a : hci_PATCH.o (.text)
                             000188e4                 : hci_PATCH.o (.text)
HCI_SendCommandCompleteEvent  $Tramp$TT$L$PI$$HCI_SendCommandCompleteEvent
   10008c81     0001bb6c     000182dc   CC2640Stack.a : hci_event_PATCH.o (.text)
llCalcScaFactor           $Tramp$TT$L$PI$$llCalcScaFactor
   1000d94d     0001bb74     0001783e   CC2640Stack.a : ll_advEndCauses_PATCH.o (.text)
LL_ENC_Decrypt            $Tramp$TT$L$PI$$LL_ENC_Decrypt
   1000b9dd     0001bb7c     0001557e   CC2640Stack.a : ll_isr.o (.text)
llProcessScanRxFIFO       $Tramp$TT$L$PI$$llProcessScanRxFIFO
   1000d575     0001bb84     0001551e   CC2640Stack.a : ll_isr.o (.text)
llSetupPauseEncReq        $Tramp$TT$L$PI$$llSetupPauseEncReq
   10007cfd     0001bb8c     0001421a   CC2640Stack.a : ll_masterEndCauses_PATCH.o (.text)
llSetupEncReq             $Tramp$TT$L$PI$$llSetupEncReq
   10007aed     0001bb94     000141bc   CC2640Stack.a : ll_masterEndCauses_PATCH.o (.text)
llSetupUpdateParamReq     $Tramp$TT$L$PI$$llSetupUpdateParamReq
   100079c9     0001bb9c     00014108   CC2640Stack.a : ll_masterEndCauses_PATCH.o (.text)
llPatchCM0                $Tramp$TT$L$PI$$llPatchCM0
   1000adb1     0001bba4     0001384c   CC2640Stack.a : ll_sleep.o (.text)
LL_Encrypt                $Tramp$TT$L$PI$$LL_Encrypt
   100057d5     0001bbac     0001332c   CC2640Stack.a : sm_mgr.o (.text)
llSetupVersionIndReq      $Tramp$TT$L$PI$$llSetupVersionIndReq
   10007f29     0001bbb4     0001167a   CC2640Stack.a : ll_slaveEndCauses_PATCH.o (.text)
                             000142f2                 : ll_masterEndCauses_PATCH.o (.text)
LL_ReadRemoteVersionInfoCback  $Tramp$TT$L$PI$$LL_ReadRemoteVersionInfoCback
   100091e1     0001bbbc     0001165c   CC2640Stack.a : ll_slaveEndCauses_PATCH.o (.text)
                             0001166e                 : ll_slaveEndCauses_PATCH.o (.text)
                             000142d4                 : ll_masterEndCauses_PATCH.o (.text)
                             000142e6                 : ll_masterEndCauses_PATCH.o (.text)
llSetupPauseEncRsp        $Tramp$TT$L$PI$$llSetupPauseEncRsp
   10007d55     0001bbc4     000115a0   CC2640Stack.a : ll_slaveEndCauses_PATCH.o (.text)
                             0001425a                 : ll_masterEndCauses_PATCH.o (.text)
llSetupStartEncRsp        $Tramp$TT$L$PI$$llSetupStartEncRsp
   10007ca9     0001bbcc     00011586   CC2640Stack.a : ll_slaveEndCauses_PATCH.o (.text)
                             000141ee                 : ll_masterEndCauses_PATCH.o (.text)
llSetupStartEncReq        $Tramp$TT$L$PI$$llSetupStartEncReq
   10007c55     0001bbd4     000114e6   CC2640Stack.a : ll_slaveEndCauses_PATCH.o (.text)
llSetupEncRsp             $Tramp$TT$L$PI$$llSetupEncRsp
   10007b95     0001bbdc     000114b0   CC2640Stack.a : ll_slaveEndCauses_PATCH.o (.text)
LL_EncLtkReqCback         $Tramp$TT$L$PI$$LL_EncLtkReqCback
   1000925d     0001bbe4     000114a8   CC2640Stack.a : ll_slaveEndCauses_PATCH.o (.text)
llEventInRange            $Tramp$TT$L$PI$$llEventInRange
   100086f1     0001bbec     000110ee   CC2640Stack.a : ll_slaveEndCauses_PATCH.o (.text)
                             0001110e                 : ll_slaveEndCauses_PATCH.o (.text)
llCheckForLstoDuringSL    $Tramp$TT$L$PI$$llCheckForLstoDuringSL
   1000c1b5     0001bbf4     000110cc   CC2640Stack.a : ll_slaveEndCauses_PATCH.o (.text)
llConnTerminate           $Tramp$TT$L$PI$$llConnTerminate
   10008631     0001bbfc     00010fec   CC2640Stack.a : ll_slaveEndCauses_PATCH.o (.text)
                             0001137c                 : ll_slaveEndCauses_PATCH.o (.text)
                             0001170c                 : ll_slaveEndCauses_PATCH.o (.text)
                             00013e96                 : ll_masterEndCauses_PATCH.o (.text)
                             000143a0                 : ll_masterEndCauses_PATCH.o (.text)
                             0001795c                 : ll_advEndCauses_PATCH.o (.text)
                             0001921a                 : ll_initEndCauses_PATCH.o (.text)
llGetNumTxDataEntries     $Tramp$TT$L$PI$$llGetNumTxDataEntries
   1000b009     0001bc04     00010d9e   CC2640Stack.a : ble_PATCH.o (.text)
llMoveTempTxDataEntries   $Tramp$TT$L$PI$$llMoveTempTxDataEntries
   1000afa1     0001bc0c     00010a0a   CC2640Stack.a : ble_PATCH.o (.text)
                             000117b2                 : ll_slaveEndCauses_PATCH.o (.text)
                             0001418c                 : ll_masterEndCauses_PATCH.o (.text)
LL_EncChangeCback         $Tramp$TT$L$PI$$LL_EncChangeCback
   1000933d     0001bc14     00010a00   CC2640Stack.a : ble_PATCH.o (.text)
                             00011574                 : ll_slaveEndCauses_PATCH.o (.text)
                             000141a4                 : ll_masterEndCauses_PATCH.o (.text)
                             00014252                 : ll_masterEndCauses_PATCH.o (.text)
LL_EncKeyRefreshCback     $Tramp$TT$L$PI$$LL_EncKeyRefreshCback
   100093dd     0001bc1c     000109de   CC2640Stack.a : ble_PATCH.o (.text)
                             00011556                 : ll_slaveEndCauses_PATCH.o (.text)
                             00014246                 : ll_masterEndCauses_PATCH.o (.text)
LL_ENC_AES128_Encrypt     $Tramp$TT$L$PI$$LL_ENC_AES128_Encrypt
   1000b5f5     0001bc24     000109b4   CC2640Stack.a : ble_PATCH.o (.text)
                             0001150e                 : ll_slaveEndCauses_PATCH.o (.text)
LL_ENC_ReverseBytes       $Tramp$TT$L$PI$$LL_ENC_ReverseBytes
   1000b4ed     0001bc2c     00010988   CC2640Stack.a : ble_PATCH.o (.text)
                             00010d34                 : ble_PATCH.o (.text)
llSetupUnknownRsp         $Tramp$TT$L$PI$$llSetupUnknownRsp
   10008069     0001bc34     00010814   CC2640Stack.a : ble_PATCH.o (.text)
                             00010cda                 : ble_PATCH.o (.text)
                             00011402                 : ll_slaveEndCauses_PATCH.o (.text)
                             0001438a                 : ll_masterEndCauses_PATCH.o (.text)
llMemCopySrc              $Tramp$TT$L$PI$$llMemCopySrc
   100089d9     0001bc3c     000104fa   CC2640Stack.a : ble_PATCH.o (.text)
                             00010506                 : ble_PATCH.o (.text)
                             00010512                 : ble_PATCH.o (.text)
                             0001051e                 : ble_PATCH.o (.text)
                             00010542                 : ble_PATCH.o (.text)
                             00010586                 : ble_PATCH.o (.text)
                             00010592                 : ble_PATCH.o (.text)
                             000105ea                 : ble_PATCH.o (.text)
                             000105f6                 : ble_PATCH.o (.text)
                             00010604                 : ble_PATCH.o (.text)
                             00010618                 : ble_PATCH.o (.text)
                             000106c6                 : ble_PATCH.o (.text)
                             000106d2                 : ble_PATCH.o (.text)
                             0001096c                 : ble_PATCH.o (.text)
                             00010980                 : ble_PATCH.o (.text)
                             00010a6c                 : ble_PATCH.o (.text)
                             00010a78                 : ble_PATCH.o (.text)
HCI_EXT_SaveFreqTuneCmd   $Tramp$TT$L$PI$$HCI_EXT_SaveFreqTuneCmd
   10009fb1     0001bc44     0000fa30   CC2640Stack_HCI_TL.a : hci_tl.o (.text)
HCI_EXT_SetFreqTuneCmd    $Tramp$TT$L$PI$$HCI_EXT_SetFreqTuneCmd
   10009f81     0001bc4c     0000fa26   CC2640Stack_HCI_TL.a : hci_tl.o (.text)
HCI_EXT_DeclareNvUsageCmd  $Tramp$TT$L$PI$$HCI_EXT_DeclareNvUsageCmd
   10009dad     0001bc54     0000f93c   CC2640Stack_HCI_TL.a : hci_tl.o (.text)
HCI_EXT_ClkDivOnHaltCmd   $Tramp$TT$L$PI$$HCI_EXT_ClkDivOnHaltCmd
   10009d79     0001bc5c     0000f930   CC2640Stack_HCI_TL.a : hci_tl.o (.text)
HCI_EXT_OverlappedProcessingCmd  $Tramp$TT$L$PI$$HCI_EXT_OverlappedProcessingCmd
   1000a195     0001bc64     0000f8fa   CC2640Stack_HCI_TL.a : hci_tl.o (.text)
HCI_EXT_MapPmIoPortCmd    $Tramp$TT$L$PI$$HCI_EXT_MapPmIoPortCmd
   10009ff1     0001bc6c     0000f8c4   CC2640Stack_HCI_TL.a : hci_tl.o (.text)
HCI_EXT_HaltDuringRfCmd   $Tramp$TT$L$PI$$HCI_EXT_HaltDuringRfCmd
   1000a0d1     0001bc74     0000f8aa   CC2640Stack_HCI_TL.a : hci_tl.o (.text)
HCI_EXT_ExtendRfRangeCmd  $Tramp$TT$L$PI$$HCI_EXT_ExtendRfRangeCmd
   1000a095     0001bc7c     0000f89e   CC2640Stack_HCI_TL.a : hci_tl.o (.text)
HCI_EXT_SetRxGainCmd      $Tramp$TT$L$PI$$HCI_EXT_SetRxGainCmd
   10009cd5     0001bc84     0000f888   CC2640Stack_HCI_TL.a : hci_tl.o (.text)
HCI_LE_LtkReqNegReplyCmd  $Tramp$TT$L$PI$$HCI_LE_LtkReqNegReplyCmd
   10009be1     0001bc8c     0000f7e0   CC2640Stack_HCI_TL.a : hci_tl.o (.text)
                             00016366   CC2640Stack.a : sm_rsppairing.o (.text)
HCI_LE_LtkReqReplyCmd     $Tramp$TT$L$PI$$HCI_LE_LtkReqReplyCmd
   10009bc5     0001bc94     0000f7cc   CC2640Stack_HCI_TL.a : hci_tl.o (.text)
                             0001634c   CC2640Stack.a : sm_rsppairing.o (.text)
HCI_LE_StartEncyptCmd     $Tramp$TT$L$PI$$HCI_LE_StartEncyptCmd
   10009ba9     0001bc9c     0000f7b6   CC2640Stack_HCI_TL.a : hci_tl.o (.text)
                             00015dc8   CC2640Stack.a : sm_intpairing.o (.text)
HCI_LE_RandCmd            $Tramp$TT$L$PI$$HCI_LE_RandCmd
   10009b51     0001bca4     0000f798   CC2640Stack_HCI_TL.a : hci_tl.o (.text)
                             00012f9a   CC2640Stack.a : sm_mgr.o (.text)
                             00013092                 : sm_mgr.o (.text)
HCI_ReverseBytes          $Tramp$TT$L$PI$$HCI_ReverseBytes
   1000d7cd     0001bcac     0000f77a   CC2640Stack_HCI_TL.a : hci_tl.o (.text)
                             0000f784                        : hci_tl.o (.text)
                             0000f94a                        : hci_tl.o (.text)
                             0000f954                        : hci_tl.o (.text)
HCI_LE_CreateConnCancelCmd  $Tramp$TT$L$PI$$HCI_LE_CreateConnCancelCmd
   1000999d     0001bcb4     0000f6b2   CC2640Stack_HCI_TL.a : hci_tl.o (.text)
                             0001a38a   CC2640Stack.a : gap_centlinkmgr.o (.text)
HCI_LE_CreateConnCmd      $Tramp$TT$L$PI$$HCI_LE_CreateConnCmd
   1000995d     0001bcbc     0000f6a6   CC2640Stack_HCI_TL.a : hci_tl.o (.text)
                             0001a25a   CC2640Stack.a : gap_centlinkmgr.o (.text)
HCI_LE_SetScanEnableCmd   $Tramp$TT$L$PI$$HCI_LE_SetScanEnableCmd
   10009941     0001bcc4     0000f632   CC2640Stack_HCI_TL.a : hci_tl.o (.text)
                             00017234   CC2640Stack.a : gap_centdevmgr.o (.text)
HCI_LE_SetScanParamCmd    $Tramp$TT$L$PI$$HCI_LE_SetScanParamCmd
   10009915     0001bccc     0000f624   CC2640Stack_HCI_TL.a : hci_tl.o (.text)
                             00016d92   CC2640Stack.a : gap_centdevmgr.o (.text)
HCI_LE_SetAdvEnableCmd    $Tramp$TT$L$PI$$HCI_LE_SetAdvEnableCmd
   100098d9     0001bcd4     0000f5f2   CC2640Stack_HCI_TL.a : hci_tl.o (.text)
                             00014c1c   CC2640Stack.a : gap_peridevmgr.o (.text)
                             00014e18                 : gap_peridevmgr.o (.text)
HCI_LE_SetScanRspDataCmd  $Tramp$TT$L$PI$$HCI_LE_SetScanRspDataCmd
   100098bd     0001bcdc     0000f5e6   CC2640Stack_HCI_TL.a : hci_tl.o (.text)
                             00014bcc   CC2640Stack.a : gap_peridevmgr.o (.text)
                             000150ba                 : gap_peridevmgr.o (.text)
HCI_LE_SetAdvDataCmd      $Tramp$TT$L$PI$$HCI_LE_SetAdvDataCmd
   100098a1     0001bce4     0000f5d8   CC2640Stack_HCI_TL.a : hci_tl.o (.text)
                             00014bc2   CC2640Stack.a : gap_peridevmgr.o (.text)
                             000150b0                 : gap_peridevmgr.o (.text)
HCI_LE_SetAdvParamCmd     $Tramp$TT$L$PI$$HCI_LE_SetAdvParamCmd
   1000986d     0001bcec     0000f5c8   CC2640Stack_HCI_TL.a : hci_tl.o (.text)
                             00014dfa   CC2640Stack.a : gap_peridevmgr.o (.text)
HCI_LE_SetRandomAddressCmd  $Tramp$TT$L$PI$$HCI_LE_SetRandomAddressCmd
   10009849     0001bcf4     0000f594   CC2640Stack_HCI_TL.a : hci_tl.o (.text)
                             00018f8c   CC2640Stack.a : gap_configmgr.o (.text)
HCI_HostNumCompletedPktCmd  $Tramp$TT$L$PI$$HCI_HostNumCompletedPktCmd
   1000965d     0001bcfc     0000f502   CC2640Stack_HCI_TL.a : hci_tl.o (.text)
                             00017ebe   CC2640Stack.a : l2cap_if.o (.text)
HCI_HostBufferSizeCmd     $Tramp$TT$L$PI$$HCI_HostBufferSizeCmd
   10009631     0001bd04     0000f4f2   CC2640Stack_HCI_TL.a : hci_tl.o (.text)
                             00017ea0   CC2640Stack.a : l2cap_if.o (.text)
HCI_SetControllerToHostFlowCtrlCmd  $Tramp$TT$L$PI$$HCI_SetControllerToHostFlowCtrlCmd
   100095f5     0001bd0c     0000f4c8   CC2640Stack_HCI_TL.a : hci_tl.o (.text)
                             00017e88   CC2640Stack.a : l2cap_if.o (.text)
                             00017eaa                 : l2cap_if.o (.text)
HCI_DisconnectCmd         $Tramp$TT$L$PI$$HCI_DisconnectCmd
   10009525     0001bd14     0000f470   CC2640Stack_HCI_TL.a : hci_tl.o (.text)
                             00011822   CC2640Stack.a : gap_linkmgr.o (.text)
                             00011d2c                 : gap_linkmgr.o (.text)
HCI_CommandCompleteEvent  $Tramp$TT$L$PI$$HCI_CommandCompleteEvent
   10008add     0001bd1c     0000f372   CC2640Stack_HCI_TL.a : hci_tl.o (.text)
                             00018706   CC2640Stack.a : hci_PATCH.o (.text)
                             000187c6                 : hci_PATCH.o (.text)
                             000187f4                 : hci_PATCH.o (.text)
                             00018828                 : hci_PATCH.o (.text)
                             00018878                 : hci_PATCH.o (.text)
                             000189ca                 : hci_PATCH.o (.text)
HCI_SendDataPkt           $Tramp$TT$L$PI$$HCI_SendDataPkt
   100094e9     0001bd24     0000d85c   CC2640Stack.a : l2cap_util.o (.text)
                             0000f390   CC2640Stack_HCI_TL.a : hci_tl.o (.text)
llSetupRejectInd          $Tramp$TT$L$PI$$llSetupRejectInd
   10007df5     0001bd2c     0000c1ee   CC2640Stack.a : ll_common_PATCH.o (.text)
                             000115d4                 : ll_slaveEndCauses_PATCH.o (.text)
WL_FindEntry              $Tramp$TT$L$PI$$WL_FindEntry
   1000d26d     0001bd34     0000c1bc   CC2640Stack.a : ll_common_PATCH.o (.text)
LL_RX_bm_alloc            $Tramp$TT$L$PI$$LL_RX_bm_alloc
   1000556d     0001bd3c     0000bdb8   CC2640Stack.a : ll_common_PATCH.o (.text)
                             00010e14                 : ble_PATCH.o (.text)
                             000155d2                 : ll_isr.o (.text)
llConvertCtrlProcTimeoutToEvent  $Tramp$TT$L$PI$$llConvertCtrlProcTimeoutToEvent
   10008741     0001bd44     0000b9b4   CC2640Stack.a : ll_common_PATCH.o (.text)
                             000111bc                 : ll_slaveEndCauses_PATCH.o (.text)
                             00013f56                 : ll_masterEndCauses_PATCH.o (.text)
                             00017824                 : ll_advEndCauses_PATCH.o (.text)
                             00019166                 : ll_initEndCauses_PATCH.o (.text)
llConvertLstoToEvent      $Tramp$TT$L$PI$$llConvertLstoToEvent
   10008721     0001bd4c     0000b95c   CC2640Stack.a : ll_common_PATCH.o (.text)
                             0001115e                 : ll_slaveEndCauses_PATCH.o (.text)
                             00013f06                 : ll_masterEndCauses_PATCH.o (.text)
                             0001781a                 : ll_advEndCauses_PATCH.o (.text)
                             0001915c                 : ll_initEndCauses_PATCH.o (.text)
llTimeDelta               $Tramp$TT$L$PI$$llTimeDelta
   1000d8f5     0001bd54     0000b8d4   CC2640Stack.a : ll_common_PATCH.o (.text)
                             0000be8a                 : ll_common_PATCH.o (.text)
                             000139e0                 : ll_sleep.o (.text)
                             00013b5c                 : ll_sleep.o (.text)
llTimeCompare             $Tramp$TT$L$PI$$llTimeCompare
   1000d8c9     0001bd5c     0000b872   CC2640Stack.a : ll_common_PATCH.o (.text)
                             0000b8c4                 : ll_common_PATCH.o (.text)
                             0000b918                 : ll_common_PATCH.o (.text)
                             0000bc3a                 : ll_common_PATCH.o (.text)
                             0000be6c                 : ll_common_PATCH.o (.text)
LL_ENC_Encrypt            $Tramp$TT$L$PI$$LL_ENC_Encrypt
   1000b965     0001bd64     0000b464   CC2640Stack.a : ll_common_PATCH.o (.text)
                             0000b4f2                 : ll_common_PATCH.o (.text)
                             0000c270                 : ll_common_PATCH.o (.text)
LL_TX_bm_alloc            $Tramp$TT$L$PI$$LL_TX_bm_alloc
   10005549     0001bd6c     0000b366   CC2640Stack.a : ll_common_PATCH.o (.text)
                             0000b3b0                 : ll_common_PATCH.o (.text)
                             0000b408                 : ll_common_PATCH.o (.text)
                             0000b43e                 : ll_common_PATCH.o (.text)
                             0000b496                 : ll_common_PATCH.o (.text)
                             0000b510                 : ll_common_PATCH.o (.text)
                             0000b552                 : ll_common_PATCH.o (.text)
                             0000b604                 : ll_common_PATCH.o (.text)
                             0000c20a                 : ll_common_PATCH.o (.text)
llEventDelta              $Tramp$TT$L$PI$$llEventDelta
   10008719     0001bd74     0000b202   CC2640Stack.a : ll_common_PATCH.o (.text)
                             0000b8f0                 : ll_common_PATCH.o (.text)
                             0000ba6e                 : ll_common_PATCH.o (.text)
                             0000c0bc                 : ll_common_PATCH.o (.text)
                             0001112c                 : ll_slaveEndCauses_PATCH.o (.text)
                             00011178                 : ll_slaveEndCauses_PATCH.o (.text)
llAtLeastTwoChans         $Tramp$TT$L$PI$$llAtLeastTwoChans
   100082f1     0001bd7c     0000afea   CC2640Stack.a : ll_PATCH.o (.text)
llSetupConn               $Tramp$TT$L$PI$$llSetupConn
   10007985     0001bd84     0000afc0   CC2640Stack.a : ll_PATCH.o (.text)
llSetupInit               $Tramp$TT$L$PI$$llSetupInit
   100077b5     0001bd8c     0000afb4   CC2640Stack.a : ll_PATCH.o (.text)
llGenerateValidAccessAddr  $Tramp$TT$L$PI$$llGenerateValidAccessAddr
   1000d695     0001bd94     0000af7e   CC2640Stack.a : ll_PATCH.o (.text)
llGenerateCRC             $Tramp$TT$L$PI$$llGenerateCRC
   100086b9     0001bd9c     0000af78   CC2640Stack.a : ll_PATCH.o (.text)
llReleaseConnId           $Tramp$TT$L$PI$$llReleaseConnId
   10008429     0001bda4     0000af0c   CC2640Stack.a : ll_PATCH.o (.text)
                             0000b7a6                 : ll_common_PATCH.o (.text)
llPendingUpdateParam      $Tramp$TT$L$PI$$llPendingUpdateParam
   10008665     0001bdac     0000ae9e   CC2640Stack.a : ll_PATCH.o (.text)
llFreeTask                $Tramp$TT$L$PI$$llFreeTask
   1000abed     0001bdb4     0000ad78   CC2640Stack.a : ll_PATCH.o (.text)
                             0000b7ac                 : ll_common_PATCH.o (.text)
                             00017718                 : ll_advEndCauses_PATCH.o (.text)
                             0001910c                 : ll_initEndCauses_PATCH.o (.text)
llGetNumTasks             $Tramp$TT$L$PI$$llGetNumTasks
   1000ace1     0001bdbc     0000ad48   CC2640Stack.a : ll_PATCH.o (.text)
llScheduler               $Tramp$TT$L$PI$$llScheduler
   1000a335     0001bdc4     0000ad32   CC2640Stack.a : ll_PATCH.o (.text)
                             0000ad88                 : ll_PATCH.o (.text)
                             0000afca                 : ll_PATCH.o (.text)
                             0001106a                 : ll_slaveEndCauses_PATCH.o (.text)
                             00013ebc                 : ll_masterEndCauses_PATCH.o (.text)
                             00017ab4                 : ll_advEndCauses_PATCH.o (.text)
                             000193a4                 : ll_initEndCauses_PATCH.o (.text)
llSetupAdv                $Tramp$TT$L$PI$$llSetupAdv
   100073e5     0001bdcc     0000acf2   CC2640Stack.a : ll_PATCH.o (.text)
LL_DirectTestEndDoneCback  $Tramp$TT$L$PI$$LL_DirectTestEndDoneCback
   10009471     0001bdd4     0000aa2a   CC2640Stack.a : ll_PATCH.o (.text)
llRfStartFS               $Tramp$TT$L$PI$$llRfStartFS
   10007269     0001bddc     0000a768   CC2640Stack.a : ll_PATCH.o (.text)
llWriteTxData             $Tramp$TT$L$PI$$llWriteTxData
   100087c9     0001bde4     0000a6f2   CC2640Stack.a : ll_PATCH.o (.text)
                             0000bcca                 : ll_common_PATCH.o (.text)
HCI_DataBufferOverflowEvent  $Tramp$TT$L$PI$$HCI_DataBufferOverflowEvent
   10008a2d     0001bdec     0000a6c0   CC2640Stack.a : ll_PATCH.o (.text)
LL_ENC_GenerateTrueRandNum  $Tramp$TT$L$PI$$LL_ENC_GenerateTrueRandNum
   1000b51d     0001bdf4     0000a4da   CC2640Stack.a : ll_PATCH.o (.text)
llEnqueueCtrlPkt          $Tramp$TT$L$PI$$llEnqueueCtrlPkt
   100080bd     0001bdfc     0000a4c0   CC2640Stack.a : ll_PATCH.o (.text)
                             0000a5b0                 : ll_PATCH.o (.text)
                             0000ac3e                 : ll_PATCH.o (.text)
                             0000b054                 : ll_PATCH.o (.text)
                             0000bf1a                 : ll_common_PATCH.o (.text)
                             00010660                 : ble_PATCH.o (.text)
                             00010892                 : ble_PATCH.o (.text)
                             00010c34                 : ble_PATCH.o (.text)
                             00010d72                 : ble_PATCH.o (.text)
                             00014156                 : ll_masterEndCauses_PATCH.o (.text)
LL_ENC_GenDeviceIV        $Tramp$TT$L$PI$$LL_ENC_GenDeviceIV
   1000b555     0001be04     0000a498   CC2640Stack.a : ll_PATCH.o (.text)
                             0001062e                 : ble_PATCH.o (.text)
LL_ENC_GenDeviceSKD       $Tramp$TT$L$PI$$LL_ENC_GenDeviceSKD
   1000b541     0001be0c     0000a490   CC2640Stack.a : ll_PATCH.o (.text)
                             00010626                 : ble_PATCH.o (.text)
LL_ConnActive             $Tramp$TT$L$PI$$LL_ConnActive
   1000678d     0001be14     0000a336   CC2640Stack.a : ll_PATCH.o (.text)
                             0000a37e                 : ll_PATCH.o (.text)
                             0000a3a0                 : ll_PATCH.o (.text)
                             0000a420                 : ll_PATCH.o (.text)
                             0000a4f2                 : ll_PATCH.o (.text)
                             0000a53c                 : ll_PATCH.o (.text)
                             0000a572                 : ll_PATCH.o (.text)
                             0000a690                 : ll_PATCH.o (.text)
                             0000aaf8                 : ll_PATCH.o (.text)
                             0000ab32                 : ll_PATCH.o (.text)
                             0000abc2                 : ll_PATCH.o (.text)
                             0000b0e4                 : ll_PATCH.o (.text)
                             0000beea                 : ll_common_PATCH.o (.text)
llReleaseAllConnId        $Tramp$TT$L$PI$$llReleaseAllConnId
   10008461     0001be1c     0000a276   CC2640Stack.a : ll_PATCH.o (.text)
LL_ClearWhiteList         $Tramp$TT$L$PI$$LL_ClearWhiteList
   10005719     0001be24     0000a202   CC2640Stack.a : ll_PATCH.o (.text)
LL_ENC_Init               $Tramp$TT$L$PI$$LL_ENC_Init
   1000b4c9     0001be2c     0000a1fe   CC2640Stack.a : ll_PATCH.o (.text)
                             00013d5e                 : ll_sleep.o (.text)
WL_Init                   $Tramp$TT$L$PI$$WL_Init
   1000d189     0001be34     0000a1fa   CC2640Stack.a : ll_PATCH.o (.text)
llHaltRadio               $Tramp$TT$L$PI$$llHaltRadio
   1000720d     0001be3c     0000a1d0   CC2640Stack.a : ll_PATCH.o (.text)
                             0000a9d4                 : ll_PATCH.o (.text)
                             0000ad62                 : ll_PATCH.o (.text)
                             0000be7c                 : ll_common_PATCH.o (.text)
HCI_HardwareErrorEvent    $Tramp$TT$L$PI$$HCI_HardwareErrorEvent
   10008bf5     0001be44     0000a17c   CC2640Stack.a : ll_PATCH.o (.text)
                             0000a6e2                 : ll_PATCH.o (.text)
                             0000bcec                 : ll_common_PATCH.o (.text)
                             0000bdf4                 : ll_common_PATCH.o (.text)
                             0000c276                 : ll_common_PATCH.o (.text)
LL_ConnectionCompleteCback  $Tramp$TT$L$PI$$LL_ConnectionCompleteCback
   10008ead     0001be4c     0000a0bc   CC2640Stack.a : ll_PATCH.o (.text)
                             0000a0de                 : ll_PATCH.o (.text)
                             0000a0f2                 : ll_PATCH.o (.text)
                             0000a134                 : ll_PATCH.o (.text)
                             0000a148                 : ll_PATCH.o (.text)
llGetCurrentTask          $Tramp$TT$L$PI$$llGetCurrentTask
   1000ac3d     0001be54     0000a04e   CC2640Stack.a : ll_PATCH.o (.text)
                             0000ad50                 : ll_PATCH.o (.text)
                             0000be72                 : ll_common_PATCH.o (.text)
                             00013b46                 : ll_sleep.o (.text)
                             00013c8a                 : ll_sleep.o (.text)
                             00013c9e                 : ll_sleep.o (.text)
llInitRAT                 $Tramp$TT$L$PI$$llInitRAT
   1000d8b5     0001be5c     00009fe6   CC2640Stack.a : ll_PATCH.o (.text)
llGetCurrentTime          $Tramp$TT$L$PI$$llGetCurrentTime
   1000d8c1     0001be64     00009fd8   CC2640Stack.a : ll_PATCH.o (.text)
                             00009fde                 : ll_PATCH.o (.text)
                             0000ad10                 : ll_PATCH.o (.text)
                             0000ba8a                 : ll_common_PATCH.o (.text)
                             0000be48                 : ll_common_PATCH.o (.text)
                             000137ce                 : ll_sleep.o (.text)
                             000139da                 : ll_sleep.o (.text)
                             00013b54                 : ll_sleep.o (.text)
                             00013bda                 : ll_sleep.o (.text)
llSetupRfHal              $Tramp$TT$L$PI$$llSetupRfHal
   1000ad6d     0001be6c     00009fb4   CC2640Stack.a : ll_PATCH.o (.text)
llSetupMailbox            $Tramp$TT$L$PI$$llSetupMailbox
   1000ad21     0001be74     00009fb0   CC2640Stack.a : ll_PATCH.o (.text)
                             0000a1de                 : ll_PATCH.o (.text)
                             0000aa2e                 : ll_PATCH.o (.text)
llResetRadio              $Tramp$TT$L$PI$$llResetRadio
   10007201     0001be7c     00009fa2   CC2640Stack.a : ll_PATCH.o (.text)
                             0001518e                 : ll_isr.o (.text)
HCI_bm_alloc              $Tramp$TT$L$PI$$HCI_bm_alloc
   100094a1     0001be84     00009bca   bleDispatch.obj (.text)
                             0000bce0   CC2640Stack.a : ll_common_PATCH.o (.text)
                             0000e1f2                 : l2cap_util.o (.text)
                             0000f2a8   CC2640Stack_HCI_TL.a : hci_tl.o (.text)
HCI_ReadRemoteVersionInfoCmd  $Tramp$TT$L$PI$$HCI_ReadRemoteVersionInfoCmd
   10009541     0001be8c     00009aec   bleDispatch.obj (.text)
                             0000f484   CC2640Stack_HCI_TL.a : hci_tl.o (.text)
HCI_SetEventMaskCmd       $Tramp$TT$L$PI$$HCI_SetEventMaskCmd
   10009571     0001be94     00009ae4   bleDispatch.obj (.text)
                             0000f490   CC2640Stack_HCI_TL.a : hci_tl.o (.text)
HCI_ReadTransmitPowerLevelCmd  $Tramp$TT$L$PI$$HCI_ReadTransmitPowerLevelCmd
   100095d1     0001be9c     00009ad6   bleDispatch.obj (.text)
                             0000f4bc   CC2640Stack_HCI_TL.a : hci_tl.o (.text)
HCI_ReadLocalSupportedFeaturesCmd  $Tramp$TT$L$PI$$HCI_ReadLocalSupportedFeaturesCmd
   1000973d     0001bea4     00009ab8   bleDispatch.obj (.text)
                             0000f554   CC2640Stack_HCI_TL.a : hci_tl.o (.text)
HCI_ReadBDADDRCmd         $Tramp$TT$L$PI$$HCI_ReadBDADDRCmd
   10009765     0001beac     00009ab2   bleDispatch.obj (.text)
                             0000f9d6   CC2640Stack_HCI_TL.a : hci_tl.o (.text)
                             00018dc8   CC2640Stack.a : gap_configmgr.o (.text)
HCI_ReadRssiCmd           $Tramp$TT$L$PI$$HCI_ReadRssiCmd
   1000978d     0001beb4     00009aac   bleDispatch.obj (.text)
                             0000f568   CC2640Stack_HCI_TL.a : hci_tl.o (.text)
HCI_LE_ReadLocalSupportedFeaturesCmd  $Tramp$TT$L$PI$$HCI_LE_ReadLocalSupportedFeaturesCmd
   10009829     0001bebc     00009a9c   bleDispatch.obj (.text)
                             0000f588   CC2640Stack_HCI_TL.a : hci_tl.o (.text)
HCI_LE_ReadAdvChanTxPowerCmd  $Tramp$TT$L$PI$$HCI_LE_ReadAdvChanTxPowerCmd
   100098f5     0001bec4     00009a96   bleDispatch.obj (.text)
                             0000f5fc   CC2640Stack_HCI_TL.a : hci_tl.o (.text)
HCI_LE_ReadWhiteListSizeCmd  $Tramp$TT$L$PI$$HCI_LE_ReadWhiteListSizeCmd
   100099c9     0001becc     00009a90   bleDispatch.obj (.text)
                             0000f6bc   CC2640Stack_HCI_TL.a : hci_tl.o (.text)
HCI_LE_ClearWhiteListCmd  $Tramp$TT$L$PI$$HCI_LE_ClearWhiteListCmd
   100099f9     0001bed4     00009a8a   bleDispatch.obj (.text)
                             0000f6c6   CC2640Stack_HCI_TL.a : hci_tl.o (.text)
HCI_LE_AddWhiteListCmd    $Tramp$TT$L$PI$$HCI_LE_AddWhiteListCmd
   10009a15     0001bedc     00009a84   bleDispatch.obj (.text)
                             0000f6d4   CC2640Stack_HCI_TL.a : hci_tl.o (.text)
HCI_LE_RemoveWhiteListCmd  $Tramp$TT$L$PI$$HCI_LE_RemoveWhiteListCmd
   10009a31     0001bee4     00009a7a   bleDispatch.obj (.text)
                             0000f6e2   CC2640Stack_HCI_TL.a : hci_tl.o (.text)
HCI_LE_SetHostChanClassificationCmd  $Tramp$TT$L$PI$$HCI_LE_SetHostChanClassificationCmd
   10009a85     0001beec     00009a70   bleDispatch.obj (.text)
                             0000f744   CC2640Stack_HCI_TL.a : hci_tl.o (.text)
HCI_LE_ReadChannelMapCmd  $Tramp$TT$L$PI$$HCI_LE_ReadChannelMapCmd
   10009aa1     0001bef4     00009a68   bleDispatch.obj (.text)
                             0000f758   CC2640Stack_HCI_TL.a : hci_tl.o (.text)
HCI_LE_EncryptCmd         $Tramp$TT$L$PI$$HCI_LE_EncryptCmd
   10009af5     0001befc     00009a58   bleDispatch.obj (.text)
                             0000f78e   CC2640Stack_HCI_TL.a : hci_tl.o (.text)
HCI_LE_ReadSupportedStatesCmd  $Tramp$TT$L$PI$$HCI_LE_ReadSupportedStatesCmd
   10009c15     0001bf04     00009a4e   bleDispatch.obj (.text)
                             0000f7ea   CC2640Stack_HCI_TL.a : hci_tl.o (.text)
HCI_LE_TestEndCmd         $Tramp$TT$L$PI$$HCI_LE_TestEndCmd
   10009c8d     0001bf0c     00009a32   bleDispatch.obj (.text)
                             0000f810   CC2640Stack_HCI_TL.a : hci_tl.o (.text)
HCI_EXT_SetTxPowerCmd     $Tramp$TT$L$PI$$HCI_EXT_SetTxPowerCmd
   10009d09     0001bf14     00009a2c   bleDispatch.obj (.text)
                             0000f894   CC2640Stack_HCI_TL.a : hci_tl.o (.text)
HCI_EXT_OnePktPerEvtCmd   $Tramp$TT$L$PI$$HCI_EXT_OnePktPerEvtCmd
   10009d45     0001bf1c     00009a24   bleDispatch.obj (.text)
                             0000f924   CC2640Stack_HCI_TL.a : hci_tl.o (.text)
HCI_EXT_DecryptCmd        $Tramp$TT$L$PI$$HCI_EXT_DecryptCmd
   10009dd1     0001bf24     00009a1c   bleDispatch.obj (.text)
                             0000f95e   CC2640Stack_HCI_TL.a : hci_tl.o (.text)
HCI_EXT_SetLocalSupportedFeaturesCmd  $Tramp$TT$L$PI$$HCI_EXT_SetLocalSupportedFeaturesCmd
   10009e2d     0001bf2c     00009a12   bleDispatch.obj (.text)
                             0000f96a   CC2640Stack_HCI_TL.a : hci_tl.o (.text)
HCI_EXT_SetFastTxResponseTimeCmd  $Tramp$TT$L$PI$$HCI_EXT_SetFastTxResponseTimeCmd
   10009e4d     0001bf34     00009a0a   bleDispatch.obj (.text)
                             0000f976   CC2640Stack_HCI_TL.a : hci_tl.o (.text)
HCI_EXT_ModemTestTxCmd    $Tramp$TT$L$PI$$HCI_EXT_ModemTestTxCmd
   10009e8d     0001bf3c     00009a02   bleDispatch.obj (.text)
                             0000f9e4   CC2640Stack_HCI_TL.a : hci_tl.o (.text)
HCI_EXT_ModemHopTestTxCmd  $Tramp$TT$L$PI$$HCI_EXT_ModemHopTestTxCmd
   10009ead     0001bf44     000099f8   bleDispatch.obj (.text)
                             0000f9ee   CC2640Stack_HCI_TL.a : hci_tl.o (.text)
HCI_EXT_ModemTestRxCmd    $Tramp$TT$L$PI$$HCI_EXT_ModemTestRxCmd
   10009ecd     0001bf4c     000099f2   bleDispatch.obj (.text)
                             0000f9fa   CC2640Stack_HCI_TL.a : hci_tl.o (.text)
HCI_EXT_EndModemTestCmd   $Tramp$TT$L$PI$$HCI_EXT_EndModemTestCmd
   10009eed     0001bf54     000099ea   bleDispatch.obj (.text)
                             0000fa04   CC2640Stack_HCI_TL.a : hci_tl.o (.text)
HCI_EXT_SetBDADDRCmd      $Tramp$TT$L$PI$$HCI_EXT_SetBDADDRCmd
   10009f0d     0001bf5c     000099e4   bleDispatch.obj (.text)
                             0000fa10   CC2640Stack_HCI_TL.a : hci_tl.o (.text)
HCI_EXT_SetSCACmd         $Tramp$TT$L$PI$$HCI_EXT_SetSCACmd
   10009f49     0001bf64     000099dc   bleDispatch.obj (.text)
                             0000f996   CC2640Stack_HCI_TL.a : hci_tl.o (.text)
HCI_EXT_EnablePTMCmd      $Tramp$TT$L$PI$$HCI_EXT_EnablePTMCmd
   10009f69     0001bf6c     000099d4   bleDispatch.obj (.text)
                             0000fa1a   CC2640Stack_HCI_TL.a : hci_tl.o (.text)
HCI_EXT_SetMaxDtmTxPowerCmd  $Tramp$TT$L$PI$$HCI_EXT_SetMaxDtmTxPowerCmd
   10009fd1     0001bf74     000099ce   bleDispatch.obj (.text)
                             0000f8b6   CC2640Stack_HCI_TL.a : hci_tl.o (.text)
HCI_EXT_DisconnectImmedCmd  $Tramp$TT$L$PI$$HCI_EXT_DisconnectImmedCmd
   1000a011     0001bf7c     000099c6   bleDispatch.obj (.text)
                             0000f8d8   CC2640Stack_HCI_TL.a : hci_tl.o (.text)
HCI_EXT_PacketErrorRateCmd  $Tramp$TT$L$PI$$HCI_EXT_PacketErrorRateCmd
   1000a031     0001bf84     000099be   bleDispatch.obj (.text)
                             0000f8ee   CC2640Stack_HCI_TL.a : hci_tl.o (.text)
HCI_EXT_PERbyChanCmd      $Tramp$TT$L$PI$$HCI_EXT_PERbyChanCmd
   1000a075     0001bf8c     000099b4   bleDispatch.obj (.text)
HCI_EXT_AdvEventNoticeCmd  $Tramp$TT$L$PI$$HCI_EXT_AdvEventNoticeCmd
   1000a0f1     0001bf94     000099aa   bleDispatch.obj (.text)
HCI_EXT_SetSlaveLatencyOverrideCmd  $Tramp$TT$L$PI$$HCI_EXT_SetSlaveLatencyOverrideCmd
   10009e6d     0001bf9c     00009992   bleDispatch.obj (.text)
                             0000f982   CC2640Stack_HCI_TL.a : hci_tl.o (.text)
HCI_EXT_BuildRevisionCmd  $Tramp$TT$L$PI$$HCI_EXT_BuildRevisionCmd
   1000a109     0001bfa4     0000998a   bleDispatch.obj (.text)
                             0000f9ac   CC2640Stack_HCI_TL.a : hci_tl.o (.text)
HCI_EXT_NumComplPktsLimitCmd  $Tramp$TT$L$PI$$HCI_EXT_NumComplPktsLimitCmd
   1000a1b5     0001bfac     00009970   bleDispatch.obj (.text)
                             0000f908   CC2640Stack_HCI_TL.a : hci_tl.o (.text)
HCI_SendControllerToHostEvent  $Tramp$TT$L$PI$$HCI_SendControllerToHostEvent
   10008d31     0001bfb4     00007072   bleDispatch.obj (.text)
                             00007b66   bleDispatch.obj (.text)
                             00009142   bleDispatch.obj (.text)

[143 trampolines]
[354 trampoline calls]


GLOBAL SYMBOLS: SORTED ALPHABETICALLY BY Name 

address   name                                  
-------   ----                                  
10014c00  A1_rw                                 
10005000  A1_rw_1                               
10019ffe  A2_rw                                 
1000dffe  A2_rw_1                               
10019ffc  A3_rw                                 
1000dffc  A3_rw_1                               
20004f2c  A4_rw                                 
200048e8  A4_rw_1                               
20004f7c  ACCX                                  
20004f80  ACCY                                  
20004f84  ACCZ                                  
10015229  ATOMICPATTERN                         
000157d3  ATT_BuildErrorRsp                     
00015803  ATT_BuildExchangeMTUReq               
0001580f  ATT_BuildExchangeMTURsp               
00015b23  ATT_BuildExecuteWriteReq              
0001589b  ATT_BuildFindByTypeValueReq           
000158f7  ATT_BuildFindByTypeValueRsp           
00015835  ATT_BuildFindInfoReq                  
00015841  ATT_BuildFindInfoRsp                  
00015b47  ATT_BuildHandleValueInd               
00015aa9  ATT_BuildPrepareWriteReq              
00015ad3  ATT_BuildPrepareWriteRsp              
000159f7  ATT_BuildReadBlobReq                  
00015a35  ATT_BuildReadBlobRsp                  
00015a6d  ATT_BuildReadByGrpTypeRsp             
00015911  ATT_BuildReadByTypeReq                
0001597d  ATT_BuildReadByTypeRsp                
00015a47  ATT_BuildReadMultiReq                 
00015a67  ATT_BuildReadMultiRsp                 
0001599f  ATT_BuildReadReq                      
000159bb  ATT_BuildReadRsp                      
000159eb  ATT_BuildWriteReq                     
00015c15  ATT_CompareUUID                       
00015c65  ATT_ConvertUUIDto128                  
00015c8d  ATT_ConvertUUIDto16                   
0001a79f  ATT_ErrorRsp                          
0001a98b  ATT_ExchangeMTUReq                    
0001a7b1  ATT_ExchangeMTURsp                    
0001aac5  ATT_ExecuteWriteReq                   
0001a8e3  ATT_ExecuteWriteRsp                   
0001a9c5  ATT_FindByTypeValueReq                
0001a7f9  ATT_FindByTypeValueRsp                
0001a9b1  ATT_FindInfoReq                       
0001a7c9  ATT_FindInfoRsp                       
00015cf5  ATT_GetMTU                            
00015d15  ATT_GetParamValue                     
0001aad1  ATT_HandleValueCfm                    
0001a905  ATT_HandleValueInd                    
0001a8ef  ATT_HandleValueNoti                   
000157e5  ATT_ParseErrorRsp                     
00015805  ATT_ParseExchangeMTUReq               
0001581f  ATT_ParseExchangeMTURsp               
00015b2b  ATT_ParseExecuteWriteReq              
00015b3d  ATT_ParseExecuteWriteRsp              
000158b5  ATT_ParseFindByTypeValueReq           
000158ff  ATT_ParseFindByTypeValueRsp           
00015837  ATT_ParseFindInfoReq                  
00015859  ATT_ParseFindInfoRsp                  
00015b87  ATT_ParseHandleValueCfm               
00015b5b  ATT_ParseHandleValueInd               
00015779  ATT_ParsePacket                       
00015aab  ATT_ParsePrepareWriteReq              
00015af1  ATT_ParsePrepareWriteRsp              
00015a11  ATT_ParseReadBlobReq                  
00015a39  ATT_ParseReadBlobRsp                  
00015a7f  ATT_ParseReadByGrpTypeRsp             
00015941  ATT_ParseReadByTypeReq                
0001597f  ATT_ParseReadByTypeRsp                
00015a4f  ATT_ParseReadMultiReq                 
00015a6b  ATT_ParseReadMultiRsp                 
000159a1  ATT_ParseReadReq                      
000159bf  ATT_ParseReadRsp                      
000159c1  ATT_ParseWriteReq                     
000159ed  ATT_ParseWriteRsp                     
0001aaa5  ATT_PrepareWriteReq                   
0001a8c9  ATT_PrepareWriteRsp                   
0001aa0d  ATT_ReadBlobReq                       
0001a861  ATT_ReadBlobRsp                       
0001aa45  ATT_ReadByGrpTypeReq                  
0001a89b  ATT_ReadByGrpTypeRsp                  
0001a9e9  ATT_ReadByTypeReq                     
0001a819  ATT_ReadByTypeRsp                     
0001aa21  ATT_ReadMultiReq                      
0001a87d  ATT_ReadMultiRsp                      
0001aa01  ATT_ReadReq                           
0001a845  ATT_ReadRsp                           
0001a985  ATT_RegisterClient                    
0001a799  ATT_RegisterServer                    
00015d13  ATT_SetParamValue                     
00015ccb  ATT_UpdateMTU                         
0001aa5d  ATT_WriteReq                          
0001a8bd  ATT_WriteRsp                          
10016c29  AddRoundKeySubBytes_Sw                
10018a19  AesCcm_authEncrypt_Sw                 
10018a35  AesCcm_decryptAuth_Sw                 
10018b09  AesCcm_getNumBlocks_Sw                
10018ac5  Aes_decrypt_Sw                        
10018a99  Aes_encrypt_Sw                        
20004f2c  COMMON_RAM_BASE_ADDR                  
10014c01  COMMON_ROM_BASE_ADDR                  
10015a6d  COPY                                  
0001ba39  CommonROM_Init                        
10017959  ECC_allocWorkzone                     
10017dbd  ECC_keyGen                            
10017961  ECC_setWin                            
10017ded  ECDH_commonKey                        
10017969  ECDSA_sign                            
10017b01  ECDSA_verif                           
10015a11  EXPORTOPERAND                         
20004f78  EXPW                                  
20004f6c  EXPX                                  
20004f70  EXPY                                  
20004f74  EXPZ                                  
10016f58  FFMult2                               
10017058  FFMult3                               
10016d05  FFMult_Sw                             
10018d6c  Fill1                                 
1000d9ec  Fill1_1                               
000118eb  GAP_Authenticate                      
00011a21  GAP_Bond                              
0001a273  GAP_CentConnRegister                  
00016dcf  GAP_CentDevMgrInit                    
00018e19  GAP_ConfigDeviceAddr                  
00016d9d  GAP_DeviceDiscoveryCancel             
00016d1d  GAP_DeviceDiscoveryRequest            
0001b8a1  GAP_DeviceInit                        
00014bd5  GAP_EndDiscoverable                   
0001a17d  GAP_EstablishLinkReq                  
00014c85  GAP_GetAdvToken                       
00018da1  GAP_GetParamValue                     
00019cb3  GAP_Init                              
00014ac1  GAP_MakeDiscoverable                  
00019d8f  GAP_NumActiveConnections              
00018db3  GAP_ParamsInit                        
000119d5  GAP_PasscodeUpdate                    
000119a3  GAP_PasskeyUpdate                     
0001add9  GAP_PeriConnRegister                  
00014cc9  GAP_PeriDevMgrInit                    
00019cc9  GAP_ProcessEvent                      
00019cad  GAP_RegisterForMsgs                   
00014ca1  GAP_RemoveAdvToken                    
0001b441  GAP_ResolvePrivateAddr                
00018ddb  GAP_SecParamsInit                     
0001ada1  GAP_SendSlaveSecurityRequest          
00014c21  GAP_SetAdvToken                       
00018d85  GAP_SetParamValue                     
000118a3  GAP_Signable                          
00011985  GAP_TerminateAuth                     
000117b9  GAP_TerminateLinkReq                  
00014cb5  GAP_UpdateAdvTokens                   
00014b67  GAP_UpdateAdvertisingData             
00011833  GAP_UpdateLinkParamReq                
0000c555  GATTServApp_AddService                
0000c579  GATTServApp_DelService                
0000c3fd  GATTServApp_DeregisterService         
0000d253  GATTServApp_GetParamValue             
0000c49f  GATTServApp_GetParameter              
0000c2fd  GATTServApp_Init                      
0001b163  GATTServApp_InitCharCfg               
0001b117  GATTServApp_ProcessCCCWriteReq        
0000c36b  GATTServApp_ProcessEvent              
0000cfd5  GATTServApp_ReadAttr                  
0001b0df  GATTServApp_ReadCharCfg               
0000c2f5  GATTServApp_RegisterForMsg            
0000c3a9  GATTServApp_RegisterService           
0000d2f1  GATTServApp_SendCCCUpdatedEvent       
0000d275  GATTServApp_SendServiceChangedInd     
0000d251  GATTServApp_SetParamValue             
0000c43f  GATTServApp_SetParameter              
200047e8  GATTServApp_TaskID                    
0000d257  GATTServApp_UpdateCharCfg             
0000d1c9  GATTServApp_WriteAttr                 
0001b0ef  GATTServApp_WriteCharCfg              
0001973b  GATT_AppCompletedMsg                  
0000fb37  GATT_DeregisterService                
0000e3bf  GATT_DiscAllCharDescs                 
0000e389  GATT_DiscAllChars                     
0000e2c1  GATT_DiscAllPrimaryServices           
0000e3b9  GATT_DiscCharsByUUID                  
0000e30f  GATT_DiscPrimaryServiceByUUID         
0000e295  GATT_ExchangeMTU                      
0000fcd5  GATT_FindHandle                       
0000fc79  GATT_FindHandleUUID                   
0000e36f  GATT_FindIncludedServices             
0000fd1d  GATT_FindNextAttr                     
0001ab29  GATT_FindUUIDRec                      
000103fd  GATT_GetNextHandle                    
0000fe71  GATT_Indication                       
00019763  GATT_Init                             
0000e20d  GATT_InitClient                       
0000fa39  GATT_InitServer                       
0000fecb  GATT_Notification                     
000198cd  GATT_NotifyEvent                      
00019781  GATT_ProcessEvent                     
0000e50b  GATT_ReadCharDesc                     
0000e3fb  GATT_ReadCharValue                    
0000e50d  GATT_ReadLongCharDesc                 
0000e403  GATT_ReadLongCharValue                
0000e405  GATT_ReadMultiCharValues              
0000e3fd  GATT_ReadUsingCharUUID                
0000e28d  GATT_RegisterForInd                   
00019729  GATT_RegisterForMsgs                  
0000fb77  GATT_RegisterForReq                   
0000fa9f  GATT_RegisterService                  
0000e481  GATT_ReliableWrites                   
0000fdbd  GATT_SendRsp                          
0000fc07  GATT_ServiceChangedInd                
0000fdad  GATT_ServiceEncKeySize                
0000fda1  GATT_ServiceNumAttrs                  
0001972f  GATT_SetHostToAppFlowCtrl             
000103fb  GATT_SetNextHandle                    
0000e44d  GATT_SignedWriteNoRsp                 
000198e1  GATT_UpdateMTU                        
0000fb7f  GATT_VerifyReadPermissions            
0000fbb5  GATT_VerifyWritePermissions           
0000e50f  GATT_WriteCharDesc                    
0000e47d  GATT_WriteCharValue                   
0000e511  GATT_WriteLongCharDesc                
0000e47f  GATT_WriteLongCharValue               
0000e431  GATT_WriteNoRsp                       
0001998d  GATT_bm_alloc                         
00019a05  GATT_bm_free                          
10015141  GETBIT                                
10015155  GETDIGIT                              
100151a5  GETDIGITL2R                           
000194d1  GGS_AddService                        
000194e9  GGS_DelService                        
000194cd  GGS_GetParamValue                     
00019495  GGS_GetParameter                      
000194fd  GGS_RegisterAppCBs                    
000194cb  GGS_SetParamValue                     
00019415  GGS_SetParameter                      
10008add  HCI_CommandCompleteEvent              
10008ba1  HCI_CommandStatusEvent                
10008a2d  HCI_DataBufferOverflowEvent           
10009525  HCI_DisconnectCmd                     
1000a0f1  HCI_EXT_AdvEventNoticeCmd             
1000a109  HCI_EXT_BuildRevisionCmd              
10009d79  HCI_EXT_ClkDivOnHaltCmd               
00018941  HCI_EXT_ConnEventNoticeCmd            
10009dad  HCI_EXT_DeclareNvUsageCmd             
10009dd1  HCI_EXT_DecryptCmd                    
0001891d  HCI_EXT_DelaySleepCmd                 
1000a011  HCI_EXT_DisconnectImmedCmd            
10009f69  HCI_EXT_EnablePTMCmd                  
10009eed  HCI_EXT_EndModemTestCmd               
1000a095  HCI_EXT_ExtendRfRangeCmd              
0001870f  HCI_EXT_GetConnInfoCmd                
1000a0d1  HCI_EXT_HaltDuringRfCmd               
10009ff1  HCI_EXT_MapPmIoPortCmd                
10009ead  HCI_EXT_ModemHopTestTxCmd             
10009ecd  HCI_EXT_ModemTestRxCmd                
10009e8d  HCI_EXT_ModemTestTxCmd                
1000a1b5  HCI_EXT_NumComplPktsLimitCmd          
10009d45  HCI_EXT_OnePktPerEvtCmd               
1000a195  HCI_EXT_OverlappedProcessingCmd       
1000a075  HCI_EXT_PERbyChanCmd                  
1000a031  HCI_EXT_PacketErrorRateCmd            
000188ef  HCI_EXT_ResetSystemCmd                
10009fb1  HCI_EXT_SaveFreqTuneCmd               
10009f0d  HCI_EXT_SetBDADDRCmd                  
10009e4d  HCI_EXT_SetFastTxResponseTimeCmd      
10009f81  HCI_EXT_SetFreqTuneCmd                
10009e2d  HCI_EXT_SetLocalSupportedFeaturesCmd  
10009fd1  HCI_EXT_SetMaxDtmTxPowerCmd           
10009cd5  HCI_EXT_SetRxGainCmd                  
10009f49  HCI_EXT_SetSCACmd                     
10009e6d  HCI_EXT_SetSlaveLatencyOverrideCmd    
10009d09  HCI_EXT_SetTxPowerCmd                 
0000f02f  HCI_ExtTaskRegister                   
0000f017  HCI_GAPTaskRegister                   
10008bf5  HCI_HardwareErrorEvent                
10009631  HCI_HostBufferSizeCmd                 
1000965d  HCI_HostNumCompletedPktCmd            
0000ef79  HCI_Init                              
0000f01f  HCI_L2CAPTaskRegister                 
10009a15  HCI_LE_AddWhiteListCmd                
100099f9  HCI_LE_ClearWhiteListCmd              
000188cd  HCI_LE_ConnUpdateCmd                  
1000999d  HCI_LE_CreateConnCancelCmd            
1000995d  HCI_LE_CreateConnCmd                  
10009af5  HCI_LE_EncryptCmd                     
10009be1  HCI_LE_LtkReqNegReplyCmd              
10009bc5  HCI_LE_LtkReqReplyCmd                 
10009b51  HCI_LE_RandCmd                        
100098f5  HCI_LE_ReadAdvChanTxPowerCmd          
000187cf  HCI_LE_ReadBufSizeCmd                 
10009aa1  HCI_LE_ReadChannelMapCmd              
10009829  HCI_LE_ReadLocalSupportedFeaturesCmd  
00018857  HCI_LE_ReadRemoteUsedFeaturesCmd      
10009c15  HCI_LE_ReadSupportedStatesCmd         
100099c9  HCI_LE_ReadWhiteListSizeCmd           
00018893  HCI_LE_ReceiverTestCmd                
0001882f  HCI_LE_RemoteConnParamReqNegReplyCmd  
000187fd  HCI_LE_RemoteConnParamReqReplyCmd     
10009a31  HCI_LE_RemoveWhiteListCmd             
100098a1  HCI_LE_SetAdvDataCmd                  
100098d9  HCI_LE_SetAdvEnableCmd                
1000986d  HCI_LE_SetAdvParamCmd                 
00018945  HCI_LE_SetEventMaskCmd                
10009a85  HCI_LE_SetHostChanClassificationCmd   
10009849  HCI_LE_SetRandomAddressCmd            
10009941  HCI_LE_SetScanEnableCmd               
10009915  HCI_LE_SetScanParamCmd                
100098bd  HCI_LE_SetScanRspDataCmd              
10009ba9  HCI_LE_StartEncyptCmd                 
10009c8d  HCI_LE_TestEndCmd                     
00018881  HCI_LE_TransmitterTestCmd             
00018061  HCI_NumOfCompletedPacketsEvent        
0000efc1  HCI_ProcessEvent                      
00018791  HCI_ReadAuthPayloadTimeoutCmd         
10009765  HCI_ReadBDADDRCmd                     
000186fb  HCI_ReadLocalSupportedCommandsCmd     
1000973d  HCI_ReadLocalSupportedFeaturesCmd     
0001897d  HCI_ReadLocalVersionInfoCmd           
10009541  HCI_ReadRemoteVersionInfoCmd          
1000978d  HCI_ReadRssiCmd                       
100095d1  HCI_ReadTransmitPowerLevelCmd         
000186d9  HCI_ResetCmd                          
1000d7cd  HCI_ReverseBytes                      
0000f027  HCI_SMPTaskRegister                   
10008c81  HCI_SendCommandCompleteEvent          
10008c59  HCI_SendCommandStatusEvent            
10008d31  HCI_SendControllerToHostEvent         
100094e9  HCI_SendDataPkt                       
100095f5  HCI_SetControllerToHostFlowCtrlCmd    
10009571  HCI_SetEventMaskCmd                   
000188a5  HCI_SetEventMaskPage2Cmd              
0000f00f  HCI_TestAppTaskRegister               
0001869d  HCI_ValidConnTimeParams               
00018287  HCI_VendorSpecifcCommandCompleteEvent 
000187b5  HCI_WriteAuthPayloadTimeoutCmd        
100094a1  HCI_bm_alloc                          
0001b955  HalFlashGetAddress                    
0001b96f  HalFlashRead                          
0001b99b  HalFlashWrite                         
0001b7f9  HalTRNG_GetTRNG                       
0001b7d9  HalTRNG_InitTRNG                      
2000483c  ICall_dispatcher                      
20004840  ICall_enterCriticalSection            
20004844  ICall_leaveCriticalSection            
10015a35  IMPORTDATA                            
100159a9  IMPORTLENGTH                          
100159ad  IMPORTMODULUS                         
100159d1  IMPORTOPERAND                         
1001568d  INVERT                                
10016da1  InvAddRoundKey_Sw                     
10016ed5  InvMixColumns_Sw                      
10016dc9  InvRoundKey_Sw                        
10017264  InvSbox                               
10016ea1  InvShiftRows_Sw                       
10016e8d  InvSubBytes_Sw                        
100154f5  JACADD                                
0000d8f3  L2CAP_BuildCmdReject                  
0000daaf  L2CAP_BuildConnectReq                 
0000da0b  L2CAP_BuildInfoRsp                    
0000d9d7  L2CAP_BuildParamUpdateRsp             
00017cbd  L2CAP_ChannelInfo                     
00017e29  L2CAP_CmdReject                       
00017e4b  L2CAP_ConnParamUpdateReq              
00017e63  L2CAP_ConnParamUpdateRsp              
00017d47  L2CAP_ConnectReq                      
00017d9d  L2CAP_ConnectRsp                      
00017bff  L2CAP_DeregisterPsm                   
00017dc3  L2CAP_DisconnectReq                   
00017de9  L2CAP_FlowCtrlCredit                  
00017ed1  L2CAP_GetMTU                          
0000e209  L2CAP_GetParamValue                   
00017eaf  L2CAP_HostNumCompletedPkts            
00017e37  L2CAP_InfoReq                         
000167ed  L2CAP_Init                            
0000dab1  L2CAP_ParseConnectReq                 
0000db8b  L2CAP_ParseFlowCtrlCredit             
0000d9f3  L2CAP_ParseInfoReq                    
0000d99d  L2CAP_ParseParamUpdateReq             
00016875  L2CAP_ProcessEvent                    
00017c57  L2CAP_PsmChannels                     
00017c27  L2CAP_PsmInfo                         
00017b29  L2CAP_RegisterApp                     
00017bb9  L2CAP_RegisterPsm                     
00017b55  L2CAP_SendData                        
00017cdd  L2CAP_SendSDU                         
00017ec5  L2CAP_SetBufSize                      
00017e75  L2CAP_SetControllerToHostFlowCtrl     
0000e207  L2CAP_SetParamValue                   
00017ed7  L2CAP_SetUserConfig                   
0000e1ed  L2CAP_bm_alloc                        
20004fe8  LEN                                   
10005739  LL_AddWhiteListDevice                 
10008d81  LL_AdvReportCback                     
0001813f  LL_AuthPayloadTimeoutExpiredCback     
0000afd9  LL_ChanMapUpdate                      
10005719  LL_ClearWhiteList                     
1000678d  LL_ConnActive                         
00017f71  LL_ConnParamUpdateCback               
0000ab7d  LL_ConnUpdate                         
10008ead  LL_ConnectionCompleteCback            
0000adcd  LL_CreateConn                         
100066c5  LL_CreateConnCancel                   
100058d5  LL_CtrlToHostFlowControl              
0000a9bd  LL_DirectTestEnd                      
10009471  LL_DirectTestEndDoneCback             
0000a8d1  LL_DirectTestRxTest                   
0000a7cd  LL_DirectTestTxTest                   
10005a39  LL_Disconnect                         
10009005  LL_DisconnectCback                    
1000b639  LL_ENC_AES128_Decrypt                 
1000b5f5  LL_ENC_AES128_Encrypt                 
1000b9dd  LL_ENC_Decrypt                        
1000b851  LL_ENC_DecryptMsg                     
1000b965  LL_ENC_Encrypt                        
1000b721  LL_ENC_EncryptMsg                     
1000b555  LL_ENC_GenDeviceIV                    
1000b541  LL_ENC_GenDeviceSKD                   
1000b569  LL_ENC_GenerateNonce                  
1000b50d  LL_ENC_GeneratePseudoRandNum          
1000b51d  LL_ENC_GenerateTrueRandNum            
1000b4c9  LL_ENC_Init                           
1000b58d  LL_ENC_LoadKey                        
1000b4ed  LL_ENC_ReverseBytes                   
10007025  LL_EXT_AdvEventNotice                 
0000b109  LL_EXT_BuildRevision                  
10006b7d  LL_EXT_ClkDivOnHalt                   
0000b0dd  LL_EXT_ConnEventNotice                
10006b81  LL_EXT_DeclareNvUsage                 
10006b85  LL_EXT_Decrypt                        
100070a1  LL_EXT_DelaySleep                     
10006f4d  LL_EXT_DisconnectImmed                
10006dd1  LL_EXT_EndModemTest                   
1000701d  LL_EXT_ExtendRfRange                  
1000a2ad  LL_EXT_ExtendRfRangeCback             
0000a2cf  LL_EXT_GetConnInfo                    
10007021  LL_EXT_HaltDuringRf                   
10006f49  LL_EXT_MapPmIoPort                    
0000aa55  LL_EXT_ModemHopTestTx                 
0000a739  LL_EXT_ModemTestRx                    
10006c01  LL_EXT_ModemTestTx                    
1000710d  LL_EXT_NumComplPktsLimit              
10006b59  LL_EXT_OnePacketPerEvent              
10007109  LL_EXT_OverlappedProcessing           
10006fed  LL_EXT_PERbyChan                      
10006f99  LL_EXT_PacketErrorRate                
1000a259  LL_EXT_PacketErrorRateCback           
100070d5  LL_EXT_ResetSystem                    
10006efd  LL_EXT_SaveFreqTune                   
10006e01  LL_EXT_SetBDADDR                      
10006bc5  LL_EXT_SetFastTxResponseTime          
10006ef9  LL_EXT_SetFreqTune                    
0000a5b9  LL_EXT_SetLocalSupportedFeatures      
0000a621  LL_EXT_SetMaxDtmTxPower               
10006ad9  LL_EXT_SetRxGain                      
1000a201  LL_EXT_SetRxGainCback                 
10006e85  LL_EXT_SetSCA                         
10006bdd  LL_EXT_SetSlaveLatencyOverride        
0000a5e9  LL_EXT_SetTxPower                     
1000a211  LL_EXT_SetTxPowerCback                
1000933d  LL_EncChangeCback                     
100093dd  LL_EncKeyRefreshCback                 
0000a539  LL_EncLtkNegReply                     
0000a4e7  LL_EncLtkReply                        
1000925d  LL_EncLtkReqCback                     
100057d5  LL_Encrypt                            
0000b0d1  LL_GetNumActiveConns                  
00009cb1  LL_Init                               
100057b9  LL_NumEmptyWlEntries                  
00013d51  LL_PM_Enter_AES                       
00013d63  LL_PM_Exit_AES                        
00013735  LL_PM_ForceSysBusThroughRF            
00013b09  LL_PM_GetRfCoreState                  
00013a9b  LL_PM_Init                            
0001373d  LL_PM_InitRadioSetupCmd               
00013c2b  LL_PM_PowerCycleRadio                 
0001395f  LL_PM_PowerOffRfCore                  
000139c3  LL_PM_PowerOffRfCoreOptimize          
00013c9d  LL_PM_PowerOnReq                      
000138e9  LL_PM_PowerOnRfCore                   
000137f3  LL_PM_PowerOnRfCoreOptimize           
20004618  LL_PM_RFCmdDoneEventCallback          
0001398b  LL_PM_ShutdownFS                      
00013b1f  LL_PM_StartRfTask                     
00013bed  LL_PM_StopCurTaskTimer                
0000a045  LL_ProcessEvent                       
10005801  LL_PseudoRand                         
1000556d  LL_RX_bm_alloc                        
100057f5  LL_Rand                               
1000a1d5  LL_RandCback                          
10006105  LL_ReadAdvChanTxPower                 
0000a379  LL_ReadAuthPayloadTimeout             
100056c9  LL_ReadBDADDR                         
100059a1  LL_ReadChanMap                        
10005879  LL_ReadLocalSupportedFeatures         
1000589d  LL_ReadLocalVersionInfo               
0000a56f  LL_ReadRemoteUsedFeatures             
00017ff3  LL_ReadRemoteUsedFeaturesCompleteCback
100058e9  LL_ReadRemoteVersionInfo              
100091e1  LL_ReadRemoteVersionInfoCback         
100059d5  LL_ReadRssi                           
0000b075  LL_ReadSupportedStates                
0000a639  LL_ReadTxPowerLevel                   
100057a1  LL_ReadWlSize                         
000181b9  LL_RemoteConnParamReqCback            
0000ab2d  LL_RemoteConnParamReqNegReply         
0000aaf5  LL_RemoteConnParamReqReply            
10005765  LL_RemoveWhiteListDevice              
0000a1af  LL_Reset                              
0001b265  LL_RxDataCompleteCback                
0000ac55  LL_SetAdvControl                      
10005f89  LL_SetAdvData                         
10005e69  LL_SetAdvParam                        
100056e9  LL_SetRandomAddress                   
10006209  LL_SetScanControl                     
1000617d  LL_SetScanParam                       
1000612d  LL_SetScanRspData                     
0000a407  LL_StartEncrypt                       
10005549  LL_TX_bm_alloc                        
20004c84  LL_TaskID                             
0000a675  LL_TxData                             
0000a39b  LL_WriteAuthPayloadTimeout            
100158ac  LUTC                                  
100158dc  LUTINCI                               
100158f4  LUTJ                                  
1001588c  LUTOPCODE                             
10015894  LUTOPSIGN                             
100158c4  LUTSE                                 
1001596c  LUTSTATE                              
00018b39  MB_ClearInts                          
00018afd  MB_DisableInts                        
00018b6f  MB_EnableHWInts                       
00018a9d  MB_EnableInts                         
10018945  MB_FwDebugDump                        
00018a3f  MB_Init                               
10018935  MB_ReadMailboxStatus                  
1001893d  MB_RegisterIsrCback                   
00018ba1  MB_SendCommand                        
00018c15  MB_SendCommandSynch                   
20004fe4  MOD                                   
20004fd8  MSBMOD                                
10016c79  MixColumns_Sw                         
10018b9c  NIST256_Gx                            
10018bc0  NIST256_Gy                            
10018b54  NIST256_a                             
10018b78  NIST256_b                             
10018b0c  NIST256_p                             
10018b30  NIST256_r                             
0001bb37  NOROM_CPUcpsid                        
0001bb43  NOROM_CPUcpsie                        
0001ba8f  NOROM_FlashProgram                    
0001baad  NOROM_FlashSectorErase                
0001b53d  NOROM_IntDisable                      
0001b5b5  NOROM_IntEnable                       
0001ba69  NOROM_TRNGConfigure                   
0001bae3  NOROM_VIMSModeGet                     
0001b897  NPI_GetMaxRxBufSize                   
0001b895  NPI_InitTransport                     
0001b891  NPI_ReadTransport                     
0001b83d  NPI_RegisterTask                      
0001b88d  NPI_RxBufLen                          
0001b843  NPI_WriteTransport                    
2000473c  OSAL_timeSeconds                      
0001bafd  Onboard_rand                          
0001baf9  Onboard_soft_reset                    
10014c04  P1_ro                                 
10005004  P1_ro_1                               
10019ffe  P1_ro_2                               
1000dffe  P1_ro_2_1                             
20004f40  P2_rw                                 
20004f40  P2_s0                                 
20004fac  P2_zi                                 
200048fc  P2_zi_1                               
0001bfbc  R2F_Flash_JT                          
0001c620  R2F_Flash_JT_CommonROM                
0001c058  R2R_Flash_JT                          
0001c638  R2R_Flash_JT_CommonROM                
200048e8  RAM_BASE_ADDR                         
10017158  RCon                                  
10018415  RFHAL_AddTxDataEntry                  
100184f9  RFHAL_AllocDataEntry                  
100184a9  RFHAL_AllocDataEntryQueue             
10018315  RFHAL_AllocRatChan                    
100185e1  RFHAL_BuildDataEntryRingBuffer        
10018669  RFHAL_BuildLinkedBuffer               
10018551  RFHAL_BuildRingBuffer                 
10018549  RFHAL_FreeDataEntry                   
100184c5  RFHAL_FreeDataEntryQueue              
10018485  RFHAL_FreeNextTxDataEntry             
1001833d  RFHAL_FreeRatChan                     
100184cd  RFHAL_GetNextDataEntry                
100184d1  RFHAL_GetTempDataEntry                
100183b9  RFHAL_InitDataQueue                   
100182ad  RFHAL_InitRfHal                       
10018369  RFHAL_MapRatChansToInt                
100184d5  RFHAL_NextDataEntryDone               
100183c5  RFHAL_QueueRFDataEntries              
10018391  RFHAL_RegisterRatChanCallback         
10005001  ROM_BASE_ADDR                         
0001b7a7  ROM_Init                              
0001b771  ROM_Spinlock                          
10016b79  RoundKey_Sw                           
10015101  SAVEPOINT                             
1000d964  SCA                                   
20004f68  SCAL                                  
100150e5  SCALARMUL                             
10014ced  SCALARMUL_core                        
10015019  SCALARMUL_final                       
10014c05  SCALARMUL_init                        
10015a51  SETOPERAND                            
10015a91  SETWORD                               
10018089  SHA256_final                          
10018129  SHA256_full                           
10017ffd  SHA256_init                           
10017ef1  SHA256_nextState                      
10018019  SHA256_process                        
10017e75  SHA256_round                          
10017f49  SHA256_saveBuffer                     
10017e39  SHA256_updateW                        
UNDEFED   SHT$$INIT_ARRAY$$Base                 
UNDEFED   SHT$$INIT_ARRAY$$Limit                
00012fbd  SM_CalcRandomAddr                     
0001303d  SM_Encrypt                            
00013331  SM_GenerateAuthenSig                  
0001afb9  SM_Init                               
00015d29  SM_InitiatorInit                      
00012f8d  SM_NewRandKey                         
000128b7  SM_PasskeyUpdate                      
0001afd5  SM_ProcessEvent                       
00012fef  SM_ResolveRandomAddrs                 
00016295  SM_ResponderInit                      
00015d7b  SM_StartEncryption                    
00012831  SM_StartPairing                       
000133cb  SM_VerifyAuthenSig                    
0001d000  SNV_FLASH                             
10015821  SQUAREMULTIPLYWORD                    
10017895  SSP_CCM_Auth_Encrypt_Sw               
10017365  SSP_CCM_Auth_Sw                       
1001767d  SSP_CCM_Decrypt_Sw                    
100174fd  SSP_CCM_Encrypt_Sw                    
100178f5  SSP_CCM_InvAuth_Decrypt_Sw            
10017839  SSP_CCM_InvAuth_Sw                    
10017771  SSP_CTR_Decrypt_Sw                    
100175ed  SSP_CTR_Encrypt_Sw                    
10017164  Sbox                                  
10015215  SelectReg                             
10016c45  ShiftRows_Sw                          
2000480c  SysBootMsg                            
20004f88  TMP1                                  
20004f8c  TMP2                                  
20004f90  TMP3                                  
20004f94  TMP4                                  
20004f98  TMP5                                  
20004f9c  TMP6                                  
1000d2d9  WL_AddEntry                           
1000d1ad  WL_Clear                              
1000d1f5  WL_ClearEntry                         
1000d425  WL_ClearIgnoreList                    
1000d26d  WL_FindEntry                          
1000d23d  WL_GetNumFreeEntries                  
1000d229  WL_GetSize                            
1000d189  WL_Init                               
1000d36d  WL_RemoveEntry                        
1000d3dd  WL_SetWlIgnore                        
10015a85  ZERO                                  
0001cbec  __TI_CINIT_Base                       
0001cc04  __TI_CINIT_Limit                      
0001cbe4  __TI_Handler_Table_Base               
0001cbec  __TI_Handler_Table_Limit              
0001b62d  __TI_auto_init                        
0001bb29  __TI_decompress_none                  
0001bb4f  __TI_decompress_rle24                 
ffffffff  __TI_pprof_out_hndl                   
ffffffff  __TI_prof_data_size                   
ffffffff  __TI_prof_data_start                  
0001ca30  __TI_static_base__                    
0001bacb  __aeabi_lmul                          
0001b4c3  __aeabi_memclr                        
0001b4c3  __aeabi_memclr4                       
0001b4c3  __aeabi_memclr8                       
0001b315  __aeabi_memcpy                        
0001b315  __aeabi_memcpy4                       
0001b315  __aeabi_memcpy8                       
0001b4c5  __aeabi_memset                        
0001b4c5  __aeabi_memset4                       
0001b4c5  __aeabi_memset8                       
0001a5a5  __aeabi_uldivmod                      
ffffffff  __binit__                             
ffffffff  __c_args__                            
1000dffe  __checksum                            
10019ffe  __checksum_CommonROM                  
10005000  __checksum_begin                      
10014c00  __checksum_begin_CommonROM            
1000dffd  __checksum_end                        
10019ffd  __checksum_end_CommonROM              
00005721  __checksum_value                      
0000e0ea  __checksum_value_CommonROM            
10018ced  __exit                                
0000fa37  _system_post_cinit                    
20004808  activeConns                           
1000d9b0  advChan                               
20004c24  advCmd                                
20004bdc  advDataEntry                          
20004c14  advDataQueue                          
1000d9b4  advEvt2Cmd                            
1000d9c0  advEvt2State                          
200049ec  advInfo                               
200047fc  advInfoExt                            
20004e98  advOutput                             
20004d58  advParam                              
0001c9d4  advPktSuffix                          
0001bafb  appForceBoot                          
20004764  appTaskID                             
0001ac48  appearanceUUID                        
00015b91  attSendMsg                            
20004fdc  aux64                                 
20004468  baseTaskID                            
ffffffff  binit                                 
00009c27  bleDispatch_BMAlloc                   
00009c53  bleDispatch_BMFree                    
00009c6b  bleDispatch_Init                      
00009b55  bleDispatch_ProcessEvent              
200043d8  bleDispatch_TaskID                    
20004f08  bleEvtMask                            
00015d18  btBaseUUID                            
20004c98  buildInfo                             
20004ee8  cachedTRNGdata                        
2000446c  cbTimers                              
20004ca8  chanMapUpdate                         
0001ac40  charAggFormatUUID                     
0001ac2c  charExtPropsUUID                      
0001ac3c  charFormatUUID                        
0001ac30  charUserDescUUID                      
0001ac28  characterUUID                         
0001ac34  clientCharCfgUUID                     
2000488c  clientInfoTbl                         
20004e70  connOutput                            
20004dc8  connReqData                           
0001b9a9  copy_in                               
0001515d  cpe0IntCback                          
000154b1  cpe1IntCback                          
20004f24  ctrlToHostEnable                      
20004cb9  curTxPowerVal                         
20004fa0  data_Gx                               
20004fa4  data_Gy                               
20004f50  data_a                                
20004fa8  data_b                                
20004f48  data_p                                
20004f4c  data_r                                
20004ed0  deviceFeatureSet                      
0001ac44  deviceNameUUID                        
20004edc  dtmInfo                               
0001ac60  extReportRefUUID                      
20004cbb  fastTxRespTime                        
20004fcc  fwInfoCmd                             
00018f95  gapAddAddrAdj                         
00014f5b  gapAddAdvToken                        
20004668  gapAppTaskID                          
2000466b  gapAutoAdvPrivateAddrChange           
00015011  gapBuildADTokens                      
00014fdb  gapCalcAdvTokenDataLen                
00014f8f  gapDeleteAdvToken                     
00018fc1  gapDetermineAddrType                  
2000466a  gapDeviceAddrMode                     
0001b471  gapFindADType                         
00014fc1  gapFindAdvToken                       
00011e35  gapFreeEstLink                        
00019071  gapGetDevAddress                      
0001906b  gapGetDevAddressMode                  
00019085  gapGetIRK                             
00019043  gapGetSRK                             
00019049  gapGetSignCounter                     
00019051  gapIncSignCounter                     
0001b445  gapIsAdvertising                      
0001b44d  gapIsScanning                         
00011f53  gapPairingCompleteCB                  
00011ef9  gapPasskeyNeededCB                    
2000466c  gapPrivateAddrChangeTimeout           
00011b2d  gapProcessConnectionCompleteEvt       
00011bf7  gapProcessDisconnectCompleteEvt       
00018f67  gapProcessNewAddr                     
00018fe3  gapProcessRandomAddrComplete          
00011bdd  gapProcessRemoteConnParamReqEvt       
20004669  gapProfileRole                        
00018eef  gapReadBD_ADDRStatus                  
00018f27  gapReadBufSizeCmdStatus               
00019f0f  gapRegisterCentral                    
00012071  gapRegisterCentralConn                
00019f15  gapRegisterPeripheral                 
00012077  gapRegisterPeripheralConn             
00011e47  gapSendBondCompleteEvent              
00011cd9  gapSendLinkUpdateEvent                
00011e99  gapSendPairingReqEvent                
00011aeb  gapSendSlaveSecurityReqEvent          
00019710  gapServiceCBs                         
0001ac14  gapServiceUUID                        
00014d8d  gapSetAdvParams                       
00014e09  gapSetAdvParamsStatus                 
00016e5f  gapSetScanParamStatus                 
20004708  gapTaskID                             
20004709  gapUnwantedTaskID                     
00011a9b  gapUpdateConnSignCounter              
0001b45d  gapValidADType                        
00014ec1  gapWriteAdvDataStatus                 
00014e2b  gapWriteAdvEnableStatus               
20004763  gattAppTaskID                         
00019939  gattGetPayload                        
0001984f  gattNotifyEvent                       
200048a6  gattNumConns                          
00019723  gattRegisterClient                    
0001971d  gattRegisterServer                    
00019907  gattSendFlowCtrlEvt                   
0000c56c  gattServiceCBs                        
0001ac18  gattServiceUUID                       
000198a5  gattStartTimer                        
000198b5  gattStopTimer                         
200048a7  gattTaskID                            
0000ef77  halAssertHandler                      
0001c750  hciCmdTable                           
0000f461  hciDisconnect                         
0000f99d  hciExtBuildRevision                   
0000f92b  hciExtClkDivOnHalt                    
0000f937  hciExtDeclareNvUsage                  
0000f943  hciExtDecrypt                         
0000f9b3  hciExtDelaySleep                      
0000f8cb  hciExtDisconnectImmed                 
0000fa17  hciExtEnablePTM                       
0000fa01  hciExtEndModemTest                    
0000f89b  hciExtExtendRfRange                   
0000f90f  hciExtGetConnInfo                     
0000f8a5  hciExtHaltDuringRf                    
0000f8bd  hciExtMapPmIoPort                     
0000f9eb  hciExtModemHopTestTx                  
0000f9dd  hciExtModemTestTx                     
0000f9f5  hciExtModemtestRx                     
0000f901  hciExtNumComplPktsLimit               
0000f91f  hciExtOnePktPerEvt                    
0000f8f5  hciExtOverlappedProcessing            
0000f8df  hciExtPER                             
0000f9c7  hciExtResetSystem                     
0000fa2d  hciExtSaveFreqTune                    
0000fa0b  hciExtSetBDADDR                       
0000f971  hciExtSetFastTxResponseTime           
0000fa21  hciExtSetFreqTune                     
0000f965  hciExtSetLocalSupportedFeatures       
0000f8b1  hciExtSetMaxDtmTxPower                
0000f883  hciExtSetRxGain                       
0000f989  hciExtSetSCA                          
0000f97d  hciExtSetSlaveLatencyOverride         
0000f88f  hciExtSetTxPower                      
200043dc  hciExtSignCounter                     
200048b9  hciExtTaskID                          
200048b6  hciGapTaskID                          
0000f4cf  hciHostBufferSize                     
0000f4f9  hciHostNumCompletedPkt                
00017f25  hciInitEventMasks                     
200048b5  hciL2capTaskID                        
0000f6cd  hciLEAddWhiteList                     
0000f6c3  hciLEClearWhiteList                   
0000f6e9  hciLEConnUpdate                       
0000f639  hciLECreateConn                       
0000f6af  hciLECreateConnCancel                 
0000f773  hciLEEncrypt                          
0000f7d3  hciLELtkReqNegReply                   
0000f7bd  hciLELtkReqReply                      
0000f795  hciLERand                             
0000f5f9  hciLEReadAdvChanTxPower               
0000f57b  hciLEReadBufSize                      
0000f74b  hciLEReadChanMap                      
0000f585  hciLEReadLocalSupportedFeatures       
0000f75f  hciLEReadRemoteUsedFeatures           
0000f7e7  hciLEReadSupportedStates              
0000f6b9  hciLEReadWhiteListSize                
0000f7f1  hciLEReceiverTest                     
0000f86d  hciLERemoteConnParamReqNegReply       
0000f817  hciLERemoteConnParamReqReply          
0000f6db  hciLERemoveWhiteList                  
0000f5d1  hciLESetAdvData                       
0000f5ed  hciLESetAdvEnab                       
0000f59b  hciLESetAdvParam                      
0000f56f  hciLESetEventMask                     
0000f73f  hciLESetHostChanClass                 
0000f58f  hciLESetRandomAddr                    
0000f62b  hciLESetScanEnable                    
0000f603  hciLESetScanParam                     
0000f5df  hciLESetScanRspData                   
0000f79f  hciLEStartEncrypt                     
0000f80d  hciLETestEnd                          
0000f7fd  hciLETransmitterTest                  
20004f28  hciPTMenabled                         
0000f3a9  hciProcessCtrlToHost                  
0000f2ef  hciProcessHostToCtrlCmd               
0000f37f  hciProcessHostToCtrlData              
0000f509  hciReadAuthPayloadTimeout             
0000f9d3  hciReadBDADDR                         
0000f547  hciReadLocalSupportedCommands         
0000f551  hciReadLocalSupportedFeatures         
0000f53d  hciReadLocalVersionInfo               
0000f477  hciReadRemoteVersionInfo              
0000f55b  hciReadRssi                           
0000f4ad  hciReadTransmitPowerLevel             
0000f4a3  hciReset                              
0000f039  hciSerialPacketParser                 
0000f4c3  hciSetControllerToHostFlowCtrl        
0000f48b  hciSetEventMask                       
0000f497  hciSetEventMaskPage2                  
200048b7  hciSmpTaskID                          
200048b4  hciTaskID                             
200048b8  hciTestTaskID                         
0000f51f  hciWriteAuthPayloadTimeout            
000156a1  hwIntCback                            
20004f58  inPointX                              
20004f5c  inPointY                              
20004f54  inScalar                              
0001ac24  includeUUID                           
20004761  indTaskId                             
20004db0  initCmd                               
20004b94  initDataEntry                         
20004bcc  initDataQueue                         
20004e58  initInfo                              
20004eb8  initOutput                            
20004cf0  initParam                             
0001c9dc  initPktSuffix                         
0000dd71  l2capAllocConnChannel                 
0000de41  l2capAllocPsm                         
0000dabd  l2capBuildConnectRsp                  
0000db3f  l2capBuildDisconnectReq               
0000db4b  l2capBuildDisconnectRsp               
0000db89  l2capBuildFlowCtrlCredit              
0000d9e3  l2capBuildInfoReq                     
0000d971  l2capBuildParamUpdateReq              
200046e0  l2capChannels                         
0000e103  l2capDisconnectAllChannels            
0000e09d  l2capDisconnectChannel                
0000d7eb  l2capEncapSendData                    
0000dedb  l2capFindLocalCID                     
0000df75  l2capFindLocalId                      
0000deb1  l2capFindPsm                          
0000df05  l2capFindRemoteCID                    
0000df37  l2capFindRemoteId                     
200047a0  l2capFixedChannels                    
0000e0bd  l2capFlowCtrlCredit                   
0000de13  l2capFreeChannel                      
0000dd1f  l2capGetCoChannelInfo                 
0000e101  l2capHandleRxError                    
2000475c  l2capMtuSize                          
0000dc27  l2capNotifyChannelEstEvt              
0000dc69  l2capNotifyChannelTermEvt             
0000db95  l2capNotifyData                       
0000dbd9  l2capNotifySignal                     
0000de75  l2capNumActiveChannnels               
200046d9  l2capNumChannels                      
200046dc  l2capNumCoChannels                    
200046da  l2capNumDataPkts                      
200046db  l2capNumPSM                           
0000d931  l2capParseCmdReject                   
0000daf7  l2capParseConnectRsp                  
0000db41  l2capParseDisconnectReq               
0000db65  l2capParseDisconnectRsp               
0000da51  l2capParseInfoRsp                     
0000d891  l2capParsePacket                      
0000d9d9  l2capParseParamUpdateRsp              
0000d339  l2capParseSignalHdr                   
200046e4  l2capPsm                              
0000d64f  l2capReassembleSegment                
0000d3e3  l2capSendCmd                          
0000d767  l2capSendConnectRsp                   
0000d473  l2capSendPkt                          
0000d34d  l2capSendReq                          
0000dfa5  l2capStartTimer                       
0000dfb9  l2capStopTimer                        
0000d44d  l2capStoreFCPkt                       
200046d8  l2capTaskID                           
200046d4  l2capUserConfig                       
20004874  linkCmd                               
20004768  linkDBNumConns                        
00019a83  linkDB_Add                            
00019c0f  linkDB_Authen                         
00019b31  linkDB_Find                           
00019b59  linkDB_FindFirst                      
00019a19  linkDB_Init                           
00019c03  linkDB_MTU                            
00019bbb  linkDB_NumActive                      
00019be1  linkDB_NumConns                       
00019c5b  linkDB_PerformFunc                    
00019a65  linkDB_Register                       
00019add  linkDB_Remove                         
00019baf  linkDB_Role                           
00019b8d  linkDB_State                          
00019b11  linkDB_Update                         
00019be7  linkDB_UpdateMTU                      
20004878  linkParam                             
0001ad17  llActiveTask                          
1000cd51  llAdv_TaskAbort                       
000176f5  llAdv_TaskConnect                     
1000cc71  llAdv_TaskEnd                         
0000be21  llAlignToNextEvent                    
0000b219  llAllocConnId                         
0001ac9b  llAllocTask                           
100082f1  llAtLeastTwoChans                     
0000bee5  llCBTimer_AptoExpiredCback            
1000d94d  llCalcScaFactor                       
1000c1b5  llCheckForLstoDuringSL                
100073a5  llCheckWhiteListUsage                 
100072e9  llClearRfInts                         
0000bcfb  llCombinePDU                          
0001c9ec  llConfigTable                         
0000b6e5  llConnCleanup                         
0000c0f1  llConnExists                          
10008631  llConnTerminate                       
20004804  llConnectionExt                       
20004cb0  llConns                               
10008741  llConvertCtrlProcTimeoutToEvent       
10008721  llConvertLstoToEvent                  
10008985  llDataQEmpty                          
10008965  llDataQFull                           
0000b7d7  llDequeueCtrlPkt                      
10008921  llDequeueDataQ                        
1000c87d  llDirAdv_TaskEnd                      
100072e5  llDisableRfInts                       
100072ed  llEnableRfInts                        
100080bd  llEnqueueCtrlPkt                      
10008889  llEnqueueDataQ                        
100088b5  llEnqueueHeadDataQ                    
1000d795  llEqAlreadyValidAddr                  
1000d6e5  llEqSynchWord                         
1000d709  llEqualBytes                          
10008719  llEventDelta                          
100086f1  llEventInRange                        
1000a939  llFindNextSecTask                     
1000a895  llFindStartType                       
0000bca5  llFragmentPDU                         
1000abed  llFreeTask                            
100086b9  llGenerateCRC                         
1000d695  llGenerateValidAccessAddr             
1000aca9  llGetActiveTasks                      
1000d4ad  llGetAdvChanPDU                       
1000ac3d  llGetCurrentTask                      
1000d8c1  llGetCurrentTime                      
0000bc4f  llGetMinCI                            
0000ba87  llGetNextConn                         
0000c05f  llGetNextDataChan                     
1000ace1  llGetNumTasks                         
1000b009  llGetNumTxDataEntries                 
0001ad4d  llGetTask                             
0001acf5  llGetTaskState                        
00010d77  llGetTotalNumTxDataEntries            
0000bffd  llGetTxPower                          
1000d6b1  llGtSixConsecZerosOrOnes              
1000d731  llGtTwentyFourTransitions             
1000720d  llHaltRadio                           
0000c275  llHardwareError                       
0000b349  llInitFeatureSet                      
1000d8b5  llInitRAT                             
000190dd  llInit_TaskConnect                    
1000d10d  llInit_TaskEnd                        
1000d761  llLtTwoChangesInLastSixBits           
00013d69  llMaster_TaskEnd                      
100089f1  llMemCopyDst                          
100089d9  llMemCopySrc                          
1000afa1  llMoveTempTxDataEntries               
1000d6f5  llOneBitSynchWordDiffer               
1000adb1  llPatchCM0                            
10008665  llPendingUpdateParam                  
0000c01d  llProcessChanMap                      
000108f5  llProcessMasterControlPacket          
00014015  llProcessMasterControlProcedures      
100072f1  llProcessPostRfOps                    
1000d575  llProcessScanRxFIFO                   
00010485  llProcessSlaveControlPacket           
000113d5  llProcessSlaveControlProcedures       
0000b67b  llProcessTxData                       
00010e75  llRatChanCBack_A                      
1000ae41  llRatChanCBack_B                      
1000ae45  llRatChanCBack_C                      
1000ae49  llRatChanCBack_D                      
0000b8a9  llRealignConn                         
10008461  llReleaseAllConnId                    
10008429  llReleaseConnId                       
0000b815  llReplaceCtrlPkt                      
10007201  llResetRadio                          
0000bf41  llRfInit                              
10007269  llRfStartFS                           
1000d46d  llScan_TaskEnd                        
0001ad7d  llScheduleTask                        
1000a335  llScheduler                           
0001ac69  llSchedulerInit                       
0000c1c9  llSendReject                          
100072e1  llSetFreqTune                         
0000c0a9  llSetNextDataChan                     
0000bfcb  llSetTxPower                          
100073e5  llSetupAdv                            
1000aeb1  llSetupAdvDataEntryQueue              
10007985  llSetupConn                           
0000b50b  llSetupConnParamReq                   
0000b54d  llSetupConnParamRsp                   
00010dbf  llSetupConnRxDataEntryQueue           
10007aed  llSetupEncReq                         
10007b95  llSetupEncRsp                         
0000b361  llSetupFeatureSetReq                  
0000b3ab  llSetupFeatureSetRsp                  
100077b5  llSetupInit                           
1000ae95  llSetupInitDataEntryQueue             
1000ad21  llSetupMailbox                        
00013ec5  llSetupNextMasterEvent                
00011073  llSetupNextSlaveEvent                 
10007cfd  llSetupPauseEncReq                    
10007d55  llSetupPauseEncRsp                    
0000b403  llSetupPingReq                        
0000b439  llSetupPingRsp                        
1000adc9  llSetupRATChanCompare                 
10007df5  llSetupRejectInd                      
0000b5ff  llSetupRejectIndExt                   
1000ad6d  llSetupRfHal                          
100075fd  llSetupScan                           
1000ae4d  llSetupScanDataEntryQueue             
10007c55  llSetupStartEncReq                    
10007ca9  llSetupStartEncRsp                    
0000c205  llSetupTermInd                        
10008069  llSetupUnknownRsp                     
0000b48f  llSetupUpdateChanReq                  
100079c9  llSetupUpdateParamReq                 
10007f29  llSetupVersionIndReq                  
00010e79  llSlave_TaskEnd                       
0000b83b  llSortActiveConns                     
20004cb8  llState                               
1000d9e1  llTaskError                           
20004ef4  llTaskList                            
1000d8c9  llTimeCompare                         
1000d8f5  llTimeDelta                           
200046f8  llUserConfig                          
1000d635  llValidAccessAddr                     
0000b199  llVerifyConnParamReqParams            
100087c9  llWriteTxData                         
0001ca2c  ll_buildRevision                      
10016551  mADD                                  
10015bd5  mINVK                                 
10015f81  mMULT                                 
10016749  mOUT                                  
10015a9d  mSET                                  
1001664d  mSUB                                  
20004cbc  maxNumConns                           
200047f8  maxPduSize                            
0001c9e4  maxPktsPerEvt                         
20004800  maxQueuedPdu                          
20004c85  maxTxPwrForDTM                        
00018cdf  mbCmdAckIsr                           
00018cf5  mbCpe0Isr                             
00018d1b  mbCpe1Isr                             
00018d43  mbHwIsr                               
20004fec  mbIntCbackTable                       
0001b315  memcpy                                
0001b4cb  memset                                
20004f14  mstCmd                                
20004f18  mstParam                              
200048b1  nextConnId                            
20004cba  numComplPkts                          
20004c88  numComplPktsFlush                     
20004c87  numComplPktsLimit                     
20004f26  numHostBufs                           
20004c8b  numTxDataBufs                         
20004c86  onePktPerEvt                          
00019f53  osalAddTimer                          
0001b741  osalAdjustTimer                       
00019f97  osalDeleteTimer                       
00019f39  osalFindTimer                         
0001aef7  osalInitTasks                         
0001a05d  osalTimerInit                         
0001a085  osalTimerUpdate                       
0001a42f  osal_CbTimerInit                      
0001a3a5  osal_CbTimerProcessEvent              
0001a57f  osal_CbTimerStart                     
0001a4a7  osal_CbTimerStop                      
0001a447  osal_CbTimerUpdate                    
0001b1b5  osal_bm_adjust_header                 
0001b1dd  osal_bm_alloc                         
0001b20f  osal_bm_free                          
000127fb  osal_buffer_uint32                    
000127cd  osal_build_uint32                     
000123a9  osal_clear_event                      
000124a1  osal_enroll_dispatchid                
000124ad  osal_enroll_senderid                  
20004622  osal_entity                           
2000462c  osal_eventloop_hook                   
00019f9f  osal_get_timeoutEx                    
0001250b  osal_init_system                      
000121c9  osal_isbufset                         
20004634  osal_last_timestamp                   
2000463c  osal_max_msecs                        
0001b9f5  osal_mem_alloc                        
0001ba17  osal_mem_free                         
00012115  osal_memcmp                           
000120fd  osal_memcpy                           
000127a9  osal_memdup                           
000120f9  osal_memset                           
00012099  osal_msg_allocate                     
000120c3  osal_msg_deallocate                   
000121e3  osal_msg_enqueue                      
00012135  osal_msg_extract                      
00012213  osal_msg_push                         
0001279d  osal_msg_push_front                   
00012169  osal_msg_receive                      
0001228b  osal_msg_send                         
0001a065  osal_next_timeout                     
0001b42d  osal_pwrmgr_init                      
0001b3cd  osal_pwrmgr_task_state                
20004628  osal_qHead                            
0001bafd  osal_rand                             
00012781  osal_revmemcpy                        
00012615  osal_run_system                       
000120bd  osal_self                             
20004630  osal_semaphore                        
0001245b  osal_service_entry                    
00012311  osal_set_event                        
000176d9  osal_snv_init                         
000175dd  osal_snv_read                         
0001752f  osal_snv_write                        
0001a027  osal_start_reload_timer               
00012763  osal_start_system                     
00019fc7  osal_start_timerEx                    
00019ff7  osal_stop_timerEx                     
0001277d  osal_strlen                           
20004638  osal_tickperiod                       
20004f60  outPointX                             
20004f64  outPointY                             
20004c6c  ownPublicAddr                         
20004c74  ownRandomAddr                         
20004c7c  ownSavedPublicAddr                    
200046b0  pAuthLink                             
2000482c  pBleEvtMask                           
200046ac  pEstLink                              
2000487c  pGapAdvertState                       
20004880  pGapDiscReq                           
20004f00  pHciEvtMask                           
20004834  pHciEvtMask2                          
20004848  pPairingParams                        
20004ffc  pSspAesEncrypt_Sw                     
0001447d  patchCM0                              
20004c9c  peerInfo                              
0001ac54  periConnParamUUID                     
0001ac4c  periPrivacyFlagUUID                   
200046b4  pfnCentralConnCBs                     
2000470c  pfnPeripheralCBs                      
20004884  pfnPeripheralConnCBs                  
2000484c  pfnResponderCBs                       
20004cbe  postRfOperations                      
0001ac1c  primaryServiceUUID                    
20004752  pwrmgr_attribute                      
20004750  pwrmgr_initialized                    
20004fac  ratChanInfo                           
0001ac50  reconnectAddrUUID                     
0001ac64  reportRefUUID                         
20004762  reqTaskId                             
20004c94  rfCfgAdiVal                           
0001c9cc  rfCfgVal                              
200047f9  rfFeModeBias                          
0001c9e8  rfOpLoc                               
1000dffc  romRev                                
20004430  rspBuf                                
20004cc0  rssiCorrection                        
20004f0c  rxDataQ                               
20004c8a  rxFifoFlowCtrl                        
20004e40  rxModemTestCmd                        
0001c9d0  rxPktSuffix                           
20004f10  rxRingBuf                             
20004ec4  rxTestOut                             
20004e84  rxTestParam                           
20004df8  scanCmd                               
200048fc  scanDataEntry                         
200049dc  scanDataQueue                         
20004d94  scanInfo                              
20004e10  scanOutput                            
20004d14  scanParam                             
0001c9d8  scanPktSuffix                         
20004810  sclkSrc                               
0001ac20  secondaryServiceUUID                  
00011c55  sendEstLinkEvent                      
0001ac38  servCharCfgUUID                       
20004890  serverInfoTbl                         
0001ac58  serviceChangedUUID                    
0001b901  setBleUserConfig                      
20004c89  slOverride                            
200046a8  slaveConnHandle                       
200046a0  slaveUpdateReq                        
20004c96  sleepDelay                            
20004de0  slvCmd                                
20004d38  slvParam                              
000132d3  smAuthReqToUint8                      
00012eeb  smDetermineKeySize                    
00015d43  smEncLTK                              
00012ebb  smEndPairing                          
00012c4f  smGenerateConfirm                     
00012c23  smGeneratePairingReqRsp               
000132ad  smGenerateRandBuf                     
00012c67  smGenerateRandMsg                     
0001310b  smInProcess                           
00012941  smLinkCheck                           
00012aef  smNextPairingState                    
00012e0f  smPairingSendEncInfo                  
00012e47  smPairingSendIdentityAddrInfo         
00012e3d  smPairingSendIdentityInfo             
00012e15  smPairingSendMasterID                 
00012e6b  smPairingSendSingingInfo              
0001295d  smProcessDataMsg                      
00012a45  smProcessEncryptChange                
00012bb5  smProcessPairingReq                   
0001307b  smProcessRandComplete                 
00012931  smRegisterInitiator                   
00012939  smRegisterResponder                   
00012c91  smSavePairInfo                        
00012a29  smSendFailAndEnd                      
00018653  smSendSMMsg                           
00012c09  smStartEncryption                     
000130e5  smStartRspTimer                       
00013101  smStopRspTimer                        
200048b3  smTaskID                              
00012959  smTimedOut                            
000132f3  smUint8ToAuthReq                      
0001313f  sm_ah                                 
00012b1f  sm_c1                                 
0001319f  sm_c1new                              
0001311d  sm_d1                                 
00013175  sm_dm                                 
0001326d  sm_s1                                 
00018521  smpBuildEncInfo                       
000185a3  smpBuildIdentityAddrInfo              
00018591  smpBuildIdentityInfo                  
00018549  smpBuildMasterID                      
0001848b  smpBuildPairingConfirm                
000184eb  smpBuildPairingFailed                 
000184b3  smpBuildPairingRandom                 
00018301  smpBuildPairingReq                    
0001830f  smpBuildPairingReqRsp                 
00018309  smpBuildPairingRsp                    
0001861b  smpBuildSecurityReq                   
000185f3  smpBuildSigningInfo                   
00018533  smpParseEncInfo                       
000185d7  smpParseIdentityAddrInfo              
000185c1  smpParseIdentityInfo                  
0001856d  smpParseMasterID                      
0001849d  smpParsePairingConfirm                
00018503  smpParsePairingFailed                 
000184d5  smpParsePairingRandom                 
000183b7  smpParsePairingReq                    
00018637  smpParseSecurityReq                   
00018605  smpParseSigningInfo                   
00016555  smpResponderProcessPairingReq         
10016d29  sspAesDecrypt_Sw                      
10016af5  sspAesEncryptBasic_Sw                 
10016a99  sspAesEncryptKeyExp_Sw                
10016979  sspAesEncrypt_Sw                      
10016985  sspKeyExpansion_Sw                    
10016975  ssp_KeyInit_Sw                        
0001af6d  stack_main                            
00007001  startup_entry                         
0001bb15  strlen                                
000189d4  supportedCmdsTable                    
20004cc4  taskEndAction                         
20004f0a  taskEndStatus                         
0001c72c  tasksArr                              
200048a0  tasksEvents                           
20004854  timerHead                             
20004e28  trxTestCmd                            
20004f1c  txDataQ                               
20004d78  txModemTestCmd                        
0001c9c0  txPowerTable                          
0001c9c4  txPwrTbl                              
20004f20  txTestOut                             
20004ea8  txTestParam                           
0001ac5c  validRangeUUID                        
20004c8c  verInfo                               
20004f40  win                                   
0001c9e0  wlSize                                
20004a8c  wlTable                               
20004b10  wlTableScan                           
20004f44  workzone                              
10015d19  zADD                                  
10015eb5  zADD32                                
10015de9  zMACC32                               
10015f0d  zMULT32                               
10015bcd  zSET                                  
10015d5d  zSUB                                  
10015e69  zSUB32                                


GLOBAL SYMBOLS: SORTED BY Symbol Address 

address   name                                  
-------   ----                                  
00005721  __checksum_value                      
00007001  startup_entry                         
00009b55  bleDispatch_ProcessEvent              
00009c27  bleDispatch_BMAlloc                   
00009c53  bleDispatch_BMFree                    
00009c6b  bleDispatch_Init                      
00009cb1  LL_Init                               
0000a045  LL_ProcessEvent                       
0000a1af  LL_Reset                              
0000a2cf  LL_EXT_GetConnInfo                    
0000a379  LL_ReadAuthPayloadTimeout             
0000a39b  LL_WriteAuthPayloadTimeout            
0000a407  LL_StartEncrypt                       
0000a4e7  LL_EncLtkReply                        
0000a539  LL_EncLtkNegReply                     
0000a56f  LL_ReadRemoteUsedFeatures             
0000a5b9  LL_EXT_SetLocalSupportedFeatures      
0000a5e9  LL_EXT_SetTxPower                     
0000a621  LL_EXT_SetMaxDtmTxPower               
0000a639  LL_ReadTxPowerLevel                   
0000a675  LL_TxData                             
0000a739  LL_EXT_ModemTestRx                    
0000a7cd  LL_DirectTestTxTest                   
0000a8d1  LL_DirectTestRxTest                   
0000a9bd  LL_DirectTestEnd                      
0000aa55  LL_EXT_ModemHopTestTx                 
0000aaf5  LL_RemoteConnParamReqReply            
0000ab2d  LL_RemoteConnParamReqNegReply         
0000ab7d  LL_ConnUpdate                         
0000ac55  LL_SetAdvControl                      
0000adcd  LL_CreateConn                         
0000afd9  LL_ChanMapUpdate                      
0000b075  LL_ReadSupportedStates                
0000b0d1  LL_GetNumActiveConns                  
0000b0dd  LL_EXT_ConnEventNotice                
0000b109  LL_EXT_BuildRevision                  
0000b199  llVerifyConnParamReqParams            
0000b219  llAllocConnId                         
0000b349  llInitFeatureSet                      
0000b361  llSetupFeatureSetReq                  
0000b3ab  llSetupFeatureSetRsp                  
0000b403  llSetupPingReq                        
0000b439  llSetupPingRsp                        
0000b48f  llSetupUpdateChanReq                  
0000b50b  llSetupConnParamReq                   
0000b54d  llSetupConnParamRsp                   
0000b5ff  llSetupRejectIndExt                   
0000b67b  llProcessTxData                       
0000b6e5  llConnCleanup                         
0000b7d7  llDequeueCtrlPkt                      
0000b815  llReplaceCtrlPkt                      
0000b83b  llSortActiveConns                     
0000b8a9  llRealignConn                         
0000ba87  llGetNextConn                         
0000bc4f  llGetMinCI                            
0000bca5  llFragmentPDU                         
0000bcfb  llCombinePDU                          
0000be21  llAlignToNextEvent                    
0000bee5  llCBTimer_AptoExpiredCback            
0000bf41  llRfInit                              
0000bfcb  llSetTxPower                          
0000bffd  llGetTxPower                          
0000c01d  llProcessChanMap                      
0000c05f  llGetNextDataChan                     
0000c0a9  llSetNextDataChan                     
0000c0f1  llConnExists                          
0000c1c9  llSendReject                          
0000c205  llSetupTermInd                        
0000c275  llHardwareError                       
0000c2f5  GATTServApp_RegisterForMsg            
0000c2fd  GATTServApp_Init                      
0000c36b  GATTServApp_ProcessEvent              
0000c3a9  GATTServApp_RegisterService           
0000c3fd  GATTServApp_DeregisterService         
0000c43f  GATTServApp_SetParameter              
0000c49f  GATTServApp_GetParameter              
0000c555  GATTServApp_AddService                
0000c56c  gattServiceCBs                        
0000c579  GATTServApp_DelService                
0000cfd5  GATTServApp_ReadAttr                  
0000d1c9  GATTServApp_WriteAttr                 
0000d251  GATTServApp_SetParamValue             
0000d253  GATTServApp_GetParamValue             
0000d257  GATTServApp_UpdateCharCfg             
0000d275  GATTServApp_SendServiceChangedInd     
0000d2f1  GATTServApp_SendCCCUpdatedEvent       
0000d339  l2capParseSignalHdr                   
0000d34d  l2capSendReq                          
0000d3e3  l2capSendCmd                          
0000d44d  l2capStoreFCPkt                       
0000d473  l2capSendPkt                          
0000d64f  l2capReassembleSegment                
0000d767  l2capSendConnectRsp                   
0000d7eb  l2capEncapSendData                    
0000d891  l2capParsePacket                      
0000d8f3  L2CAP_BuildCmdReject                  
0000d931  l2capParseCmdReject                   
0000d971  l2capBuildParamUpdateReq              
0000d99d  L2CAP_ParseParamUpdateReq             
0000d9d7  L2CAP_BuildParamUpdateRsp             
0000d9d9  l2capParseParamUpdateRsp              
0000d9e3  l2capBuildInfoReq                     
0000d9f3  L2CAP_ParseInfoReq                    
0000da0b  L2CAP_BuildInfoRsp                    
0000da51  l2capParseInfoRsp                     
0000daaf  L2CAP_BuildConnectReq                 
0000dab1  L2CAP_ParseConnectReq                 
0000dabd  l2capBuildConnectRsp                  
0000daf7  l2capParseConnectRsp                  
0000db3f  l2capBuildDisconnectReq               
0000db41  l2capParseDisconnectReq               
0000db4b  l2capBuildDisconnectRsp               
0000db65  l2capParseDisconnectRsp               
0000db89  l2capBuildFlowCtrlCredit              
0000db8b  L2CAP_ParseFlowCtrlCredit             
0000db95  l2capNotifyData                       
0000dbd9  l2capNotifySignal                     
0000dc27  l2capNotifyChannelEstEvt              
0000dc69  l2capNotifyChannelTermEvt             
0000dd1f  l2capGetCoChannelInfo                 
0000dd71  l2capAllocConnChannel                 
0000de13  l2capFreeChannel                      
0000de41  l2capAllocPsm                         
0000de75  l2capNumActiveChannnels               
0000deb1  l2capFindPsm                          
0000dedb  l2capFindLocalCID                     
0000df05  l2capFindRemoteCID                    
0000df37  l2capFindRemoteId                     
0000df75  l2capFindLocalId                      
0000dfa5  l2capStartTimer                       
0000dfb9  l2capStopTimer                        
0000e09d  l2capDisconnectChannel                
0000e0bd  l2capFlowCtrlCredit                   
0000e0ea  __checksum_value_CommonROM            
0000e101  l2capHandleRxError                    
0000e103  l2capDisconnectAllChannels            
0000e1ed  L2CAP_bm_alloc                        
0000e207  L2CAP_SetParamValue                   
0000e209  L2CAP_GetParamValue                   
0000e20d  GATT_InitClient                       
0000e28d  GATT_RegisterForInd                   
0000e295  GATT_ExchangeMTU                      
0000e2c1  GATT_DiscAllPrimaryServices           
0000e30f  GATT_DiscPrimaryServiceByUUID         
0000e36f  GATT_FindIncludedServices             
0000e389  GATT_DiscAllChars                     
0000e3b9  GATT_DiscCharsByUUID                  
0000e3bf  GATT_DiscAllCharDescs                 
0000e3fb  GATT_ReadCharValue                    
0000e3fd  GATT_ReadUsingCharUUID                
0000e403  GATT_ReadLongCharValue                
0000e405  GATT_ReadMultiCharValues              
0000e431  GATT_WriteNoRsp                       
0000e44d  GATT_SignedWriteNoRsp                 
0000e47d  GATT_WriteCharValue                   
0000e47f  GATT_WriteLongCharValue               
0000e481  GATT_ReliableWrites                   
0000e50b  GATT_ReadCharDesc                     
0000e50d  GATT_ReadLongCharDesc                 
0000e50f  GATT_WriteCharDesc                    
0000e511  GATT_WriteLongCharDesc                
0000ef77  halAssertHandler                      
0000ef79  HCI_Init                              
0000efc1  HCI_ProcessEvent                      
0000f00f  HCI_TestAppTaskRegister               
0000f017  HCI_GAPTaskRegister                   
0000f01f  HCI_L2CAPTaskRegister                 
0000f027  HCI_SMPTaskRegister                   
0000f02f  HCI_ExtTaskRegister                   
0000f039  hciSerialPacketParser                 
0000f2ef  hciProcessHostToCtrlCmd               
0000f37f  hciProcessHostToCtrlData              
0000f3a9  hciProcessCtrlToHost                  
0000f461  hciDisconnect                         
0000f477  hciReadRemoteVersionInfo              
0000f48b  hciSetEventMask                       
0000f497  hciSetEventMaskPage2                  
0000f4a3  hciReset                              
0000f4ad  hciReadTransmitPowerLevel             
0000f4c3  hciSetControllerToHostFlowCtrl        
0000f4cf  hciHostBufferSize                     
0000f4f9  hciHostNumCompletedPkt                
0000f509  hciReadAuthPayloadTimeout             
0000f51f  hciWriteAuthPayloadTimeout            
0000f53d  hciReadLocalVersionInfo               
0000f547  hciReadLocalSupportedCommands         
0000f551  hciReadLocalSupportedFeatures         
0000f55b  hciReadRssi                           
0000f56f  hciLESetEventMask                     
0000f57b  hciLEReadBufSize                      
0000f585  hciLEReadLocalSupportedFeatures       
0000f58f  hciLESetRandomAddr                    
0000f59b  hciLESetAdvParam                      
0000f5d1  hciLESetAdvData                       
0000f5df  hciLESetScanRspData                   
0000f5ed  hciLESetAdvEnab                       
0000f5f9  hciLEReadAdvChanTxPower               
0000f603  hciLESetScanParam                     
0000f62b  hciLESetScanEnable                    
0000f639  hciLECreateConn                       
0000f6af  hciLECreateConnCancel                 
0000f6b9  hciLEReadWhiteListSize                
0000f6c3  hciLEClearWhiteList                   
0000f6cd  hciLEAddWhiteList                     
0000f6db  hciLERemoveWhiteList                  
0000f6e9  hciLEConnUpdate                       
0000f73f  hciLESetHostChanClass                 
0000f74b  hciLEReadChanMap                      
0000f75f  hciLEReadRemoteUsedFeatures           
0000f773  hciLEEncrypt                          
0000f795  hciLERand                             
0000f79f  hciLEStartEncrypt                     
0000f7bd  hciLELtkReqReply                      
0000f7d3  hciLELtkReqNegReply                   
0000f7e7  hciLEReadSupportedStates              
0000f7f1  hciLEReceiverTest                     
0000f7fd  hciLETransmitterTest                  
0000f80d  hciLETestEnd                          
0000f817  hciLERemoteConnParamReqReply          
0000f86d  hciLERemoteConnParamReqNegReply       
0000f883  hciExtSetRxGain                       
0000f88f  hciExtSetTxPower                      
0000f89b  hciExtExtendRfRange                   
0000f8a5  hciExtHaltDuringRf                    
0000f8b1  hciExtSetMaxDtmTxPower                
0000f8bd  hciExtMapPmIoPort                     
0000f8cb  hciExtDisconnectImmed                 
0000f8df  hciExtPER                             
0000f8f5  hciExtOverlappedProcessing            
0000f901  hciExtNumComplPktsLimit               
0000f90f  hciExtGetConnInfo                     
0000f91f  hciExtOnePktPerEvt                    
0000f92b  hciExtClkDivOnHalt                    
0000f937  hciExtDeclareNvUsage                  
0000f943  hciExtDecrypt                         
0000f965  hciExtSetLocalSupportedFeatures       
0000f971  hciExtSetFastTxResponseTime           
0000f97d  hciExtSetSlaveLatencyOverride         
0000f989  hciExtSetSCA                          
0000f99d  hciExtBuildRevision                   
0000f9b3  hciExtDelaySleep                      
0000f9c7  hciExtResetSystem                     
0000f9d3  hciReadBDADDR                         
0000f9dd  hciExtModemTestTx                     
0000f9eb  hciExtModemHopTestTx                  
0000f9f5  hciExtModemtestRx                     
0000fa01  hciExtEndModemTest                    
0000fa0b  hciExtSetBDADDR                       
0000fa17  hciExtEnablePTM                       
0000fa21  hciExtSetFreqTune                     
0000fa2d  hciExtSaveFreqTune                    
0000fa37  _system_post_cinit                    
0000fa39  GATT_InitServer                       
0000fa9f  GATT_RegisterService                  
0000fb37  GATT_DeregisterService                
0000fb77  GATT_RegisterForReq                   
0000fb7f  GATT_VerifyReadPermissions            
0000fbb5  GATT_VerifyWritePermissions           
0000fc07  GATT_ServiceChangedInd                
0000fc79  GATT_FindHandleUUID                   
0000fcd5  GATT_FindHandle                       
0000fd1d  GATT_FindNextAttr                     
0000fda1  GATT_ServiceNumAttrs                  
0000fdad  GATT_ServiceEncKeySize                
0000fdbd  GATT_SendRsp                          
0000fe71  GATT_Indication                       
0000fecb  GATT_Notification                     
000103fb  GATT_SetNextHandle                    
000103fd  GATT_GetNextHandle                    
00010485  llProcessSlaveControlPacket           
000108f5  llProcessMasterControlPacket          
00010d77  llGetTotalNumTxDataEntries            
00010dbf  llSetupConnRxDataEntryQueue           
00010e75  llRatChanCBack_A                      
00010e79  llSlave_TaskEnd                       
00011073  llSetupNextSlaveEvent                 
000113d5  llProcessSlaveControlProcedures       
000117b9  GAP_TerminateLinkReq                  
00011833  GAP_UpdateLinkParamReq                
000118a3  GAP_Signable                          
000118eb  GAP_Authenticate                      
00011985  GAP_TerminateAuth                     
000119a3  GAP_PasskeyUpdate                     
000119d5  GAP_PasscodeUpdate                    
00011a21  GAP_Bond                              
00011a9b  gapUpdateConnSignCounter              
00011aeb  gapSendSlaveSecurityReqEvent          
00011b2d  gapProcessConnectionCompleteEvt       
00011bdd  gapProcessRemoteConnParamReqEvt       
00011bf7  gapProcessDisconnectCompleteEvt       
00011c55  sendEstLinkEvent                      
00011cd9  gapSendLinkUpdateEvent                
00011e35  gapFreeEstLink                        
00011e47  gapSendBondCompleteEvent              
00011e99  gapSendPairingReqEvent                
00011ef9  gapPasskeyNeededCB                    
00011f53  gapPairingCompleteCB                  
00012071  gapRegisterCentralConn                
00012077  gapRegisterPeripheralConn             
00012099  osal_msg_allocate                     
000120bd  osal_self                             
000120c3  osal_msg_deallocate                   
000120f9  osal_memset                           
000120fd  osal_memcpy                           
00012115  osal_memcmp                           
00012135  osal_msg_extract                      
00012169  osal_msg_receive                      
000121c9  osal_isbufset                         
000121e3  osal_msg_enqueue                      
00012213  osal_msg_push                         
0001228b  osal_msg_send                         
00012311  osal_set_event                        
000123a9  osal_clear_event                      
0001245b  osal_service_entry                    
000124a1  osal_enroll_dispatchid                
000124ad  osal_enroll_senderid                  
0001250b  osal_init_system                      
00012615  osal_run_system                       
00012763  osal_start_system                     
0001277d  osal_strlen                           
00012781  osal_revmemcpy                        
0001279d  osal_msg_push_front                   
000127a9  osal_memdup                           
000127cd  osal_build_uint32                     
000127fb  osal_buffer_uint32                    
00012831  SM_StartPairing                       
000128b7  SM_PasskeyUpdate                      
00012931  smRegisterInitiator                   
00012939  smRegisterResponder                   
00012941  smLinkCheck                           
00012959  smTimedOut                            
0001295d  smProcessDataMsg                      
00012a29  smSendFailAndEnd                      
00012a45  smProcessEncryptChange                
00012aef  smNextPairingState                    
00012b1f  sm_c1                                 
00012bb5  smProcessPairingReq                   
00012c09  smStartEncryption                     
00012c23  smGeneratePairingReqRsp               
00012c4f  smGenerateConfirm                     
00012c67  smGenerateRandMsg                     
00012c91  smSavePairInfo                        
00012e0f  smPairingSendEncInfo                  
00012e15  smPairingSendMasterID                 
00012e3d  smPairingSendIdentityInfo             
00012e47  smPairingSendIdentityAddrInfo         
00012e6b  smPairingSendSingingInfo              
00012ebb  smEndPairing                          
00012eeb  smDetermineKeySize                    
00012f8d  SM_NewRandKey                         
00012fbd  SM_CalcRandomAddr                     
00012fef  SM_ResolveRandomAddrs                 
0001303d  SM_Encrypt                            
0001307b  smProcessRandComplete                 
000130e5  smStartRspTimer                       
00013101  smStopRspTimer                        
0001310b  smInProcess                           
0001311d  sm_d1                                 
0001313f  sm_ah                                 
00013175  sm_dm                                 
0001319f  sm_c1new                              
0001326d  sm_s1                                 
000132ad  smGenerateRandBuf                     
000132d3  smAuthReqToUint8                      
000132f3  smUint8ToAuthReq                      
00013331  SM_GenerateAuthenSig                  
000133cb  SM_VerifyAuthenSig                    
00013735  LL_PM_ForceSysBusThroughRF            
0001373d  LL_PM_InitRadioSetupCmd               
000137f3  LL_PM_PowerOnRfCoreOptimize           
000138e9  LL_PM_PowerOnRfCore                   
0001395f  LL_PM_PowerOffRfCore                  
0001398b  LL_PM_ShutdownFS                      
000139c3  LL_PM_PowerOffRfCoreOptimize          
00013a9b  LL_PM_Init                            
00013b09  LL_PM_GetRfCoreState                  
00013b1f  LL_PM_StartRfTask                     
00013bed  LL_PM_StopCurTaskTimer                
00013c2b  LL_PM_PowerCycleRadio                 
00013c9d  LL_PM_PowerOnReq                      
00013d51  LL_PM_Enter_AES                       
00013d63  LL_PM_Exit_AES                        
00013d69  llMaster_TaskEnd                      
00013ec5  llSetupNextMasterEvent                
00014015  llProcessMasterControlProcedures      
0001447d  patchCM0                              
00014ac1  GAP_MakeDiscoverable                  
00014b67  GAP_UpdateAdvertisingData             
00014bd5  GAP_EndDiscoverable                   
00014c21  GAP_SetAdvToken                       
00014c85  GAP_GetAdvToken                       
00014ca1  GAP_RemoveAdvToken                    
00014cb5  GAP_UpdateAdvTokens                   
00014cc9  GAP_PeriDevMgrInit                    
00014d8d  gapSetAdvParams                       
00014e09  gapSetAdvParamsStatus                 
00014e2b  gapWriteAdvEnableStatus               
00014ec1  gapWriteAdvDataStatus                 
00014f5b  gapAddAdvToken                        
00014f8f  gapDeleteAdvToken                     
00014fc1  gapFindAdvToken                       
00014fdb  gapCalcAdvTokenDataLen                
00015011  gapBuildADTokens                      
0001515d  cpe0IntCback                          
000154b1  cpe1IntCback                          
000156a1  hwIntCback                            
00015779  ATT_ParsePacket                       
000157d3  ATT_BuildErrorRsp                     
000157e5  ATT_ParseErrorRsp                     
00015803  ATT_BuildExchangeMTUReq               
00015805  ATT_ParseExchangeMTUReq               
0001580f  ATT_BuildExchangeMTURsp               
0001581f  ATT_ParseExchangeMTURsp               
00015835  ATT_BuildFindInfoReq                  
00015837  ATT_ParseFindInfoReq                  
00015841  ATT_BuildFindInfoRsp                  
00015859  ATT_ParseFindInfoRsp                  
0001589b  ATT_BuildFindByTypeValueReq           
000158b5  ATT_ParseFindByTypeValueReq           
000158f7  ATT_BuildFindByTypeValueRsp           
000158ff  ATT_ParseFindByTypeValueRsp           
00015911  ATT_BuildReadByTypeReq                
00015941  ATT_ParseReadByTypeReq                
0001597d  ATT_BuildReadByTypeRsp                
0001597f  ATT_ParseReadByTypeRsp                
0001599f  ATT_BuildReadReq                      
000159a1  ATT_ParseReadReq                      
000159bb  ATT_BuildReadRsp                      
000159bf  ATT_ParseReadRsp                      
000159c1  ATT_ParseWriteReq                     
000159eb  ATT_BuildWriteReq                     
000159ed  ATT_ParseWriteRsp                     
000159f7  ATT_BuildReadBlobReq                  
00015a11  ATT_ParseReadBlobReq                  
00015a35  ATT_BuildReadBlobRsp                  
00015a39  ATT_ParseReadBlobRsp                  
00015a47  ATT_BuildReadMultiReq                 
00015a4f  ATT_ParseReadMultiReq                 
00015a67  ATT_BuildReadMultiRsp                 
00015a6b  ATT_ParseReadMultiRsp                 
00015a6d  ATT_BuildReadByGrpTypeRsp             
00015a7f  ATT_ParseReadByGrpTypeRsp             
00015aa9  ATT_BuildPrepareWriteReq              
00015aab  ATT_ParsePrepareWriteReq              
00015ad3  ATT_BuildPrepareWriteRsp              
00015af1  ATT_ParsePrepareWriteRsp              
00015b23  ATT_BuildExecuteWriteReq              
00015b2b  ATT_ParseExecuteWriteReq              
00015b3d  ATT_ParseExecuteWriteRsp              
00015b47  ATT_BuildHandleValueInd               
00015b5b  ATT_ParseHandleValueInd               
00015b87  ATT_ParseHandleValueCfm               
00015b91  attSendMsg                            
00015c15  ATT_CompareUUID                       
00015c65  ATT_ConvertUUIDto128                  
00015c8d  ATT_ConvertUUIDto16                   
00015ccb  ATT_UpdateMTU                         
00015cf5  ATT_GetMTU                            
00015d13  ATT_SetParamValue                     
00015d15  ATT_GetParamValue                     
00015d18  btBaseUUID                            
00015d29  SM_InitiatorInit                      
00015d43  smEncLTK                              
00015d7b  SM_StartEncryption                    
00016295  SM_ResponderInit                      
00016555  smpResponderProcessPairingReq         
000167ed  L2CAP_Init                            
00016875  L2CAP_ProcessEvent                    
00016d1d  GAP_DeviceDiscoveryRequest            
00016d9d  GAP_DeviceDiscoveryCancel             
00016dcf  GAP_CentDevMgrInit                    
00016e5f  gapSetScanParamStatus                 
0001752f  osal_snv_write                        
000175dd  osal_snv_read                         
000176d9  osal_snv_init                         
000176f5  llAdv_TaskConnect                     
00017b29  L2CAP_RegisterApp                     
00017b55  L2CAP_SendData                        
00017bb9  L2CAP_RegisterPsm                     
00017bff  L2CAP_DeregisterPsm                   
00017c27  L2CAP_PsmInfo                         
00017c57  L2CAP_PsmChannels                     
00017cbd  L2CAP_ChannelInfo                     
00017cdd  L2CAP_SendSDU                         
00017d47  L2CAP_ConnectReq                      
00017d9d  L2CAP_ConnectRsp                      
00017dc3  L2CAP_DisconnectReq                   
00017de9  L2CAP_FlowCtrlCredit                  
00017e29  L2CAP_CmdReject                       
00017e37  L2CAP_InfoReq                         
00017e4b  L2CAP_ConnParamUpdateReq              
00017e63  L2CAP_ConnParamUpdateRsp              
00017e75  L2CAP_SetControllerToHostFlowCtrl     
00017eaf  L2CAP_HostNumCompletedPkts            
00017ec5  L2CAP_SetBufSize                      
00017ed1  L2CAP_GetMTU                          
00017ed7  L2CAP_SetUserConfig                   
00017f25  hciInitEventMasks                     
00017f71  LL_ConnParamUpdateCback               
00017ff3  LL_ReadRemoteUsedFeaturesCompleteCback
00018061  HCI_NumOfCompletedPacketsEvent        
0001813f  LL_AuthPayloadTimeoutExpiredCback     
000181b9  LL_RemoteConnParamReqCback            
00018287  HCI_VendorSpecifcCommandCompleteEvent 
00018301  smpBuildPairingReq                    
00018309  smpBuildPairingRsp                    
0001830f  smpBuildPairingReqRsp                 
000183b7  smpParsePairingReq                    
0001848b  smpBuildPairingConfirm                
0001849d  smpParsePairingConfirm                
000184b3  smpBuildPairingRandom                 
000184d5  smpParsePairingRandom                 
000184eb  smpBuildPairingFailed                 
00018503  smpParsePairingFailed                 
00018521  smpBuildEncInfo                       
00018533  smpParseEncInfo                       
00018549  smpBuildMasterID                      
0001856d  smpParseMasterID                      
00018591  smpBuildIdentityInfo                  
000185a3  smpBuildIdentityAddrInfo              
000185c1  smpParseIdentityInfo                  
000185d7  smpParseIdentityAddrInfo              
000185f3  smpBuildSigningInfo                   
00018605  smpParseSigningInfo                   
0001861b  smpBuildSecurityReq                   
00018637  smpParseSecurityReq                   
00018653  smSendSMMsg                           
0001869d  HCI_ValidConnTimeParams               
000186d9  HCI_ResetCmd                          
000186fb  HCI_ReadLocalSupportedCommandsCmd     
0001870f  HCI_EXT_GetConnInfoCmd                
00018791  HCI_ReadAuthPayloadTimeoutCmd         
000187b5  HCI_WriteAuthPayloadTimeoutCmd        
000187cf  HCI_LE_ReadBufSizeCmd                 
000187fd  HCI_LE_RemoteConnParamReqReplyCmd     
0001882f  HCI_LE_RemoteConnParamReqNegReplyCmd  
00018857  HCI_LE_ReadRemoteUsedFeaturesCmd      
00018881  HCI_LE_TransmitterTestCmd             
00018893  HCI_LE_ReceiverTestCmd                
000188a5  HCI_SetEventMaskPage2Cmd              
000188cd  HCI_LE_ConnUpdateCmd                  
000188ef  HCI_EXT_ResetSystemCmd                
0001891d  HCI_EXT_DelaySleepCmd                 
00018941  HCI_EXT_ConnEventNoticeCmd            
00018945  HCI_LE_SetEventMaskCmd                
0001897d  HCI_ReadLocalVersionInfoCmd           
000189d4  supportedCmdsTable                    
00018a3f  MB_Init                               
00018a9d  MB_EnableInts                         
00018afd  MB_DisableInts                        
00018b39  MB_ClearInts                          
00018b6f  MB_EnableHWInts                       
00018ba1  MB_SendCommand                        
00018c15  MB_SendCommandSynch                   
00018cdf  mbCmdAckIsr                           
00018cf5  mbCpe0Isr                             
00018d1b  mbCpe1Isr                             
00018d43  mbHwIsr                               
00018d85  GAP_SetParamValue                     
00018da1  GAP_GetParamValue                     
00018db3  GAP_ParamsInit                        
00018ddb  GAP_SecParamsInit                     
00018e19  GAP_ConfigDeviceAddr                  
00018eef  gapReadBD_ADDRStatus                  
00018f27  gapReadBufSizeCmdStatus               
00018f67  gapProcessNewAddr                     
00018f95  gapAddAddrAdj                         
00018fc1  gapDetermineAddrType                  
00018fe3  gapProcessRandomAddrComplete          
00019043  gapGetSRK                             
00019049  gapGetSignCounter                     
00019051  gapIncSignCounter                     
0001906b  gapGetDevAddressMode                  
00019071  gapGetDevAddress                      
00019085  gapGetIRK                             
000190dd  llInit_TaskConnect                    
00019415  GGS_SetParameter                      
00019495  GGS_GetParameter                      
000194cb  GGS_SetParamValue                     
000194cd  GGS_GetParamValue                     
000194d1  GGS_AddService                        
000194e9  GGS_DelService                        
000194fd  GGS_RegisterAppCBs                    
00019710  gapServiceCBs                         
0001971d  gattRegisterServer                    
00019723  gattRegisterClient                    
00019729  GATT_RegisterForMsgs                  
0001972f  GATT_SetHostToAppFlowCtrl             
0001973b  GATT_AppCompletedMsg                  
00019763  GATT_Init                             
00019781  GATT_ProcessEvent                     
0001984f  gattNotifyEvent                       
000198a5  gattStartTimer                        
000198b5  gattStopTimer                         
000198cd  GATT_NotifyEvent                      
000198e1  GATT_UpdateMTU                        
00019907  gattSendFlowCtrlEvt                   
00019939  gattGetPayload                        
0001998d  GATT_bm_alloc                         
00019a05  GATT_bm_free                          
00019a19  linkDB_Init                           
00019a65  linkDB_Register                       
00019a83  linkDB_Add                            
00019add  linkDB_Remove                         
00019b11  linkDB_Update                         
00019b31  linkDB_Find                           
00019b59  linkDB_FindFirst                      
00019b8d  linkDB_State                          
00019baf  linkDB_Role                           
00019bbb  linkDB_NumActive                      
00019be1  linkDB_NumConns                       
00019be7  linkDB_UpdateMTU                      
00019c03  linkDB_MTU                            
00019c0f  linkDB_Authen                         
00019c5b  linkDB_PerformFunc                    
00019cad  GAP_RegisterForMsgs                   
00019cb3  GAP_Init                              
00019cc9  GAP_ProcessEvent                      
00019d8f  GAP_NumActiveConnections              
00019f0f  gapRegisterCentral                    
00019f15  gapRegisterPeripheral                 
00019f39  osalFindTimer                         
00019f53  osalAddTimer                          
00019f97  osalDeleteTimer                       
00019f9f  osal_get_timeoutEx                    
00019fc7  osal_start_timerEx                    
00019ff7  osal_stop_timerEx                     
0001a027  osal_start_reload_timer               
0001a05d  osalTimerInit                         
0001a065  osal_next_timeout                     
0001a085  osalTimerUpdate                       
0001a17d  GAP_EstablishLinkReq                  
0001a273  GAP_CentConnRegister                  
0001a3a5  osal_CbTimerProcessEvent              
0001a42f  osal_CbTimerInit                      
0001a447  osal_CbTimerUpdate                    
0001a4a7  osal_CbTimerStop                      
0001a57f  osal_CbTimerStart                     
0001a5a5  __aeabi_uldivmod                      
0001a799  ATT_RegisterServer                    
0001a79f  ATT_ErrorRsp                          
0001a7b1  ATT_ExchangeMTURsp                    
0001a7c9  ATT_FindInfoRsp                       
0001a7f9  ATT_FindByTypeValueRsp                
0001a819  ATT_ReadByTypeRsp                     
0001a845  ATT_ReadRsp                           
0001a861  ATT_ReadBlobRsp                       
0001a87d  ATT_ReadMultiRsp                      
0001a89b  ATT_ReadByGrpTypeRsp                  
0001a8bd  ATT_WriteRsp                          
0001a8c9  ATT_PrepareWriteRsp                   
0001a8e3  ATT_ExecuteWriteRsp                   
0001a8ef  ATT_HandleValueNoti                   
0001a905  ATT_HandleValueInd                    
0001a985  ATT_RegisterClient                    
0001a98b  ATT_ExchangeMTUReq                    
0001a9b1  ATT_FindInfoReq                       
0001a9c5  ATT_FindByTypeValueReq                
0001a9e9  ATT_ReadByTypeReq                     
0001aa01  ATT_ReadReq                           
0001aa0d  ATT_ReadBlobReq                       
0001aa21  ATT_ReadMultiReq                      
0001aa45  ATT_ReadByGrpTypeReq                  
0001aa5d  ATT_WriteReq                          
0001aaa5  ATT_PrepareWriteReq                   
0001aac5  ATT_ExecuteWriteReq                   
0001aad1  ATT_HandleValueCfm                    
0001ab29  GATT_FindUUIDRec                      
0001ac14  gapServiceUUID                        
0001ac18  gattServiceUUID                       
0001ac1c  primaryServiceUUID                    
0001ac20  secondaryServiceUUID                  
0001ac24  includeUUID                           
0001ac28  characterUUID                         
0001ac2c  charExtPropsUUID                      
0001ac30  charUserDescUUID                      
0001ac34  clientCharCfgUUID                     
0001ac38  servCharCfgUUID                       
0001ac3c  charFormatUUID                        
0001ac40  charAggFormatUUID                     
0001ac44  deviceNameUUID                        
0001ac48  appearanceUUID                        
0001ac4c  periPrivacyFlagUUID                   
0001ac50  reconnectAddrUUID                     
0001ac54  periConnParamUUID                     
0001ac58  serviceChangedUUID                    
0001ac5c  validRangeUUID                        
0001ac60  extReportRefUUID                      
0001ac64  reportRefUUID                         
0001ac69  llSchedulerInit                       
0001ac9b  llAllocTask                           
0001acf5  llGetTaskState                        
0001ad17  llActiveTask                          
0001ad4d  llGetTask                             
0001ad7d  llScheduleTask                        
0001ada1  GAP_SendSlaveSecurityRequest          
0001add9  GAP_PeriConnRegister                  
0001aef7  osalInitTasks                         
0001af6d  stack_main                            
0001afb9  SM_Init                               
0001afd5  SM_ProcessEvent                       
0001b0df  GATTServApp_ReadCharCfg               
0001b0ef  GATTServApp_WriteCharCfg              
0001b117  GATTServApp_ProcessCCCWriteReq        
0001b163  GATTServApp_InitCharCfg               
0001b1b5  osal_bm_adjust_header                 
0001b1dd  osal_bm_alloc                         
0001b20f  osal_bm_free                          
0001b265  LL_RxDataCompleteCback                
0001b315  __aeabi_memcpy                        
0001b315  __aeabi_memcpy4                       
0001b315  __aeabi_memcpy8                       
0001b315  memcpy                                
0001b3cd  osal_pwrmgr_task_state                
0001b42d  osal_pwrmgr_init                      
0001b441  GAP_ResolvePrivateAddr                
0001b445  gapIsAdvertising                      
0001b44d  gapIsScanning                         
0001b45d  gapValidADType                        
0001b471  gapFindADType                         
0001b4c3  __aeabi_memclr                        
0001b4c3  __aeabi_memclr4                       
0001b4c3  __aeabi_memclr8                       
0001b4c5  __aeabi_memset                        
0001b4c5  __aeabi_memset4                       
0001b4c5  __aeabi_memset8                       
0001b4cb  memset                                
0001b53d  NOROM_IntDisable                      
0001b5b5  NOROM_IntEnable                       
0001b62d  __TI_auto_init                        
0001b741  osalAdjustTimer                       
0001b771  ROM_Spinlock                          
0001b7a7  ROM_Init                              
0001b7d9  HalTRNG_InitTRNG                      
0001b7f9  HalTRNG_GetTRNG                       
0001b83d  NPI_RegisterTask                      
0001b843  NPI_WriteTransport                    
0001b88d  NPI_RxBufLen                          
0001b891  NPI_ReadTransport                     
0001b895  NPI_InitTransport                     
0001b897  NPI_GetMaxRxBufSize                   
0001b8a1  GAP_DeviceInit                        
0001b901  setBleUserConfig                      
0001b955  HalFlashGetAddress                    
0001b96f  HalFlashRead                          
0001b99b  HalFlashWrite                         
0001b9a9  copy_in                               
0001b9f5  osal_mem_alloc                        
0001ba17  osal_mem_free                         
0001ba39  CommonROM_Init                        
0001ba69  NOROM_TRNGConfigure                   
0001ba8f  NOROM_FlashProgram                    
0001baad  NOROM_FlashSectorErase                
0001bacb  __aeabi_lmul                          
0001bae3  NOROM_VIMSModeGet                     
0001baf9  Onboard_soft_reset                    
0001bafb  appForceBoot                          
0001bafd  Onboard_rand                          
0001bafd  osal_rand                             
0001bb15  strlen                                
0001bb29  __TI_decompress_none                  
0001bb37  NOROM_CPUcpsid                        
0001bb43  NOROM_CPUcpsie                        
0001bb4f  __TI_decompress_rle24                 
0001bfbc  R2F_Flash_JT                          
0001c058  R2R_Flash_JT                          
0001c620  R2F_Flash_JT_CommonROM                
0001c638  R2R_Flash_JT_CommonROM                
0001c72c  tasksArr                              
0001c750  hciCmdTable                           
0001c9c0  txPowerTable                          
0001c9c4  txPwrTbl                              
0001c9cc  rfCfgVal                              
0001c9d0  rxPktSuffix                           
0001c9d4  advPktSuffix                          
0001c9d8  scanPktSuffix                         
0001c9dc  initPktSuffix                         
0001c9e0  wlSize                                
0001c9e4  maxPktsPerEvt                         
0001c9e8  rfOpLoc                               
0001c9ec  llConfigTable                         
0001ca2c  ll_buildRevision                      
0001ca30  __TI_static_base__                    
0001cbe4  __TI_Handler_Table_Base               
0001cbec  __TI_CINIT_Base                       
0001cbec  __TI_Handler_Table_Limit              
0001cc04  __TI_CINIT_Limit                      
0001d000  SNV_FLASH                             
10005000  A1_rw_1                               
10005000  __checksum_begin                      
10005001  ROM_BASE_ADDR                         
10005004  P1_ro_1                               
10005549  LL_TX_bm_alloc                        
1000556d  LL_RX_bm_alloc                        
100056c9  LL_ReadBDADDR                         
100056e9  LL_SetRandomAddress                   
10005719  LL_ClearWhiteList                     
10005739  LL_AddWhiteListDevice                 
10005765  LL_RemoveWhiteListDevice              
100057a1  LL_ReadWlSize                         
100057b9  LL_NumEmptyWlEntries                  
100057d5  LL_Encrypt                            
100057f5  LL_Rand                               
10005801  LL_PseudoRand                         
10005879  LL_ReadLocalSupportedFeatures         
1000589d  LL_ReadLocalVersionInfo               
100058d5  LL_CtrlToHostFlowControl              
100058e9  LL_ReadRemoteVersionInfo              
100059a1  LL_ReadChanMap                        
100059d5  LL_ReadRssi                           
10005a39  LL_Disconnect                         
10005e69  LL_SetAdvParam                        
10005f89  LL_SetAdvData                         
10006105  LL_ReadAdvChanTxPower                 
1000612d  LL_SetScanRspData                     
1000617d  LL_SetScanParam                       
10006209  LL_SetScanControl                     
100066c5  LL_CreateConnCancel                   
1000678d  LL_ConnActive                         
10006ad9  LL_EXT_SetRxGain                      
10006b59  LL_EXT_OnePacketPerEvent              
10006b7d  LL_EXT_ClkDivOnHalt                   
10006b81  LL_EXT_DeclareNvUsage                 
10006b85  LL_EXT_Decrypt                        
10006bc5  LL_EXT_SetFastTxResponseTime          
10006bdd  LL_EXT_SetSlaveLatencyOverride        
10006c01  LL_EXT_ModemTestTx                    
10006dd1  LL_EXT_EndModemTest                   
10006e01  LL_EXT_SetBDADDR                      
10006e85  LL_EXT_SetSCA                         
10006ef9  LL_EXT_SetFreqTune                    
10006efd  LL_EXT_SaveFreqTune                   
10006f49  LL_EXT_MapPmIoPort                    
10006f4d  LL_EXT_DisconnectImmed                
10006f99  LL_EXT_PacketErrorRate                
10006fed  LL_EXT_PERbyChan                      
1000701d  LL_EXT_ExtendRfRange                  
10007021  LL_EXT_HaltDuringRf                   
10007025  LL_EXT_AdvEventNotice                 
100070a1  LL_EXT_DelaySleep                     
100070d5  LL_EXT_ResetSystem                    
10007109  LL_EXT_OverlappedProcessing           
1000710d  LL_EXT_NumComplPktsLimit              
10007201  llResetRadio                          
1000720d  llHaltRadio                           
10007269  llRfStartFS                           
100072e1  llSetFreqTune                         
100072e5  llDisableRfInts                       
100072e9  llClearRfInts                         
100072ed  llEnableRfInts                        
100072f1  llProcessPostRfOps                    
100073a5  llCheckWhiteListUsage                 
100073e5  llSetupAdv                            
100075fd  llSetupScan                           
100077b5  llSetupInit                           
10007985  llSetupConn                           
100079c9  llSetupUpdateParamReq                 
10007aed  llSetupEncReq                         
10007b95  llSetupEncRsp                         
10007c55  llSetupStartEncReq                    
10007ca9  llSetupStartEncRsp                    
10007cfd  llSetupPauseEncReq                    
10007d55  llSetupPauseEncRsp                    
10007df5  llSetupRejectInd                      
10007f29  llSetupVersionIndReq                  
10008069  llSetupUnknownRsp                     
100080bd  llEnqueueCtrlPkt                      
100082f1  llAtLeastTwoChans                     
10008429  llReleaseConnId                       
10008461  llReleaseAllConnId                    
10008631  llConnTerminate                       
10008665  llPendingUpdateParam                  
100086b9  llGenerateCRC                         
100086f1  llEventInRange                        
10008719  llEventDelta                          
10008721  llConvertLstoToEvent                  
10008741  llConvertCtrlProcTimeoutToEvent       
100087c9  llWriteTxData                         
10008889  llEnqueueDataQ                        
100088b5  llEnqueueHeadDataQ                    
10008921  llDequeueDataQ                        
10008965  llDataQFull                           
10008985  llDataQEmpty                          
100089d9  llMemCopySrc                          
100089f1  llMemCopyDst                          
10008a2d  HCI_DataBufferOverflowEvent           
10008add  HCI_CommandCompleteEvent              
10008ba1  HCI_CommandStatusEvent                
10008bf5  HCI_HardwareErrorEvent                
10008c59  HCI_SendCommandStatusEvent            
10008c81  HCI_SendCommandCompleteEvent          
10008d31  HCI_SendControllerToHostEvent         
10008d81  LL_AdvReportCback                     
10008ead  LL_ConnectionCompleteCback            
10009005  LL_DisconnectCback                    
100091e1  LL_ReadRemoteVersionInfoCback         
1000925d  LL_EncLtkReqCback                     
1000933d  LL_EncChangeCback                     
100093dd  LL_EncKeyRefreshCback                 
10009471  LL_DirectTestEndDoneCback             
100094a1  HCI_bm_alloc                          
100094e9  HCI_SendDataPkt                       
10009525  HCI_DisconnectCmd                     
10009541  HCI_ReadRemoteVersionInfoCmd          
10009571  HCI_SetEventMaskCmd                   
100095d1  HCI_ReadTransmitPowerLevelCmd         
100095f5  HCI_SetControllerToHostFlowCtrlCmd    
10009631  HCI_HostBufferSizeCmd                 
1000965d  HCI_HostNumCompletedPktCmd            
1000973d  HCI_ReadLocalSupportedFeaturesCmd     
10009765  HCI_ReadBDADDRCmd                     
1000978d  HCI_ReadRssiCmd                       
10009829  HCI_LE_ReadLocalSupportedFeaturesCmd  
10009849  HCI_LE_SetRandomAddressCmd            
1000986d  HCI_LE_SetAdvParamCmd                 
100098a1  HCI_LE_SetAdvDataCmd                  
100098bd  HCI_LE_SetScanRspDataCmd              
100098d9  HCI_LE_SetAdvEnableCmd                
100098f5  HCI_LE_ReadAdvChanTxPowerCmd          
10009915  HCI_LE_SetScanParamCmd                
10009941  HCI_LE_SetScanEnableCmd               
1000995d  HCI_LE_CreateConnCmd                  
1000999d  HCI_LE_CreateConnCancelCmd            
100099c9  HCI_LE_ReadWhiteListSizeCmd           
100099f9  HCI_LE_ClearWhiteListCmd              
10009a15  HCI_LE_AddWhiteListCmd                
10009a31  HCI_LE_RemoveWhiteListCmd             
10009a85  HCI_LE_SetHostChanClassificationCmd   
10009aa1  HCI_LE_ReadChannelMapCmd              
10009af5  HCI_LE_EncryptCmd                     
10009b51  HCI_LE_RandCmd                        
10009ba9  HCI_LE_StartEncyptCmd                 
10009bc5  HCI_LE_LtkReqReplyCmd                 
10009be1  HCI_LE_LtkReqNegReplyCmd              
10009c15  HCI_LE_ReadSupportedStatesCmd         
10009c8d  HCI_LE_TestEndCmd                     
10009cd5  HCI_EXT_SetRxGainCmd                  
10009d09  HCI_EXT_SetTxPowerCmd                 
10009d45  HCI_EXT_OnePktPerEvtCmd               
10009d79  HCI_EXT_ClkDivOnHaltCmd               
10009dad  HCI_EXT_DeclareNvUsageCmd             
10009dd1  HCI_EXT_DecryptCmd                    
10009e2d  HCI_EXT_SetLocalSupportedFeaturesCmd  
10009e4d  HCI_EXT_SetFastTxResponseTimeCmd      
10009e6d  HCI_EXT_SetSlaveLatencyOverrideCmd    
10009e8d  HCI_EXT_ModemTestTxCmd                
10009ead  HCI_EXT_ModemHopTestTxCmd             
10009ecd  HCI_EXT_ModemTestRxCmd                
10009eed  HCI_EXT_EndModemTestCmd               
10009f0d  HCI_EXT_SetBDADDRCmd                  
10009f49  HCI_EXT_SetSCACmd                     
10009f69  HCI_EXT_EnablePTMCmd                  
10009f81  HCI_EXT_SetFreqTuneCmd                
10009fb1  HCI_EXT_SaveFreqTuneCmd               
10009fd1  HCI_EXT_SetMaxDtmTxPowerCmd           
10009ff1  HCI_EXT_MapPmIoPortCmd                
1000a011  HCI_EXT_DisconnectImmedCmd            
1000a031  HCI_EXT_PacketErrorRateCmd            
1000a075  HCI_EXT_PERbyChanCmd                  
1000a095  HCI_EXT_ExtendRfRangeCmd              
1000a0d1  HCI_EXT_HaltDuringRfCmd               
1000a0f1  HCI_EXT_AdvEventNoticeCmd             
1000a109  HCI_EXT_BuildRevisionCmd              
1000a195  HCI_EXT_OverlappedProcessingCmd       
1000a1b5  HCI_EXT_NumComplPktsLimitCmd          
1000a1d5  LL_RandCback                          
1000a201  LL_EXT_SetRxGainCback                 
1000a211  LL_EXT_SetTxPowerCback                
1000a259  LL_EXT_PacketErrorRateCback           
1000a2ad  LL_EXT_ExtendRfRangeCback             
1000a335  llScheduler                           
1000a895  llFindStartType                       
1000a939  llFindNextSecTask                     
1000abed  llFreeTask                            
1000ac3d  llGetCurrentTask                      
1000aca9  llGetActiveTasks                      
1000ace1  llGetNumTasks                         
1000ad21  llSetupMailbox                        
1000ad6d  llSetupRfHal                          
1000adb1  llPatchCM0                            
1000adc9  llSetupRATChanCompare                 
1000ae41  llRatChanCBack_B                      
1000ae45  llRatChanCBack_C                      
1000ae49  llRatChanCBack_D                      
1000ae4d  llSetupScanDataEntryQueue             
1000ae95  llSetupInitDataEntryQueue             
1000aeb1  llSetupAdvDataEntryQueue              
1000afa1  llMoveTempTxDataEntries               
1000b009  llGetNumTxDataEntries                 
1000b4c9  LL_ENC_Init                           
1000b4ed  LL_ENC_ReverseBytes                   
1000b50d  LL_ENC_GeneratePseudoRandNum          
1000b51d  LL_ENC_GenerateTrueRandNum            
1000b541  LL_ENC_GenDeviceSKD                   
1000b555  LL_ENC_GenDeviceIV                    
1000b569  LL_ENC_GenerateNonce                  
1000b58d  LL_ENC_LoadKey                        
1000b5f5  LL_ENC_AES128_Encrypt                 
1000b639  LL_ENC_AES128_Decrypt                 
1000b721  LL_ENC_EncryptMsg                     
1000b851  LL_ENC_DecryptMsg                     
1000b965  LL_ENC_Encrypt                        
1000b9dd  LL_ENC_Decrypt                        
1000c1b5  llCheckForLstoDuringSL                
1000c87d  llDirAdv_TaskEnd                      
1000cc71  llAdv_TaskEnd                         
1000cd51  llAdv_TaskAbort                       
1000d10d  llInit_TaskEnd                        
1000d189  WL_Init                               
1000d1ad  WL_Clear                              
1000d1f5  WL_ClearEntry                         
1000d229  WL_GetSize                            
1000d23d  WL_GetNumFreeEntries                  
1000d26d  WL_FindEntry                          
1000d2d9  WL_AddEntry                           
1000d36d  WL_RemoveEntry                        
1000d3dd  WL_SetWlIgnore                        
1000d425  WL_ClearIgnoreList                    
1000d46d  llScan_TaskEnd                        
1000d4ad  llGetAdvChanPDU                       
1000d575  llProcessScanRxFIFO                   
1000d635  llValidAccessAddr                     
1000d695  llGenerateValidAccessAddr             
1000d6b1  llGtSixConsecZerosOrOnes              
1000d6e5  llEqSynchWord                         
1000d6f5  llOneBitSynchWordDiffer               
1000d709  llEqualBytes                          
1000d731  llGtTwentyFourTransitions             
1000d761  llLtTwoChangesInLastSixBits           
1000d795  llEqAlreadyValidAddr                  
1000d7cd  HCI_ReverseBytes                      
1000d8b5  llInitRAT                             
1000d8c1  llGetCurrentTime                      
1000d8c9  llTimeCompare                         
1000d8f5  llTimeDelta                           
1000d94d  llCalcScaFactor                       
1000d964  SCA                                   
1000d9b0  advChan                               
1000d9b4  advEvt2Cmd                            
1000d9c0  advEvt2State                          
1000d9e1  llTaskError                           
1000d9ec  Fill1_1                               
1000dffc  A3_rw_1                               
1000dffc  romRev                                
1000dffd  __checksum_end                        
1000dffe  A2_rw_1                               
1000dffe  P1_ro_2_1                             
1000dffe  __checksum                            
10014c00  A1_rw                                 
10014c00  __checksum_begin_CommonROM            
10014c01  COMMON_ROM_BASE_ADDR                  
10014c04  P1_ro                                 
10014c05  SCALARMUL_init                        
10014ced  SCALARMUL_core                        
10015019  SCALARMUL_final                       
100150e5  SCALARMUL                             
10015101  SAVEPOINT                             
10015141  GETBIT                                
10015155  GETDIGIT                              
100151a5  GETDIGITL2R                           
10015215  SelectReg                             
10015229  ATOMICPATTERN                         
100154f5  JACADD                                
1001568d  INVERT                                
10015821  SQUAREMULTIPLYWORD                    
1001588c  LUTOPCODE                             
10015894  LUTOPSIGN                             
100158ac  LUTC                                  
100158c4  LUTSE                                 
100158dc  LUTINCI                               
100158f4  LUTJ                                  
1001596c  LUTSTATE                              
100159a9  IMPORTLENGTH                          
100159ad  IMPORTMODULUS                         
100159d1  IMPORTOPERAND                         
10015a11  EXPORTOPERAND                         
10015a35  IMPORTDATA                            
10015a51  SETOPERAND                            
10015a6d  COPY                                  
10015a85  ZERO                                  
10015a91  SETWORD                               
10015a9d  mSET                                  
10015bcd  zSET                                  
10015bd5  mINVK                                 
10015d19  zADD                                  
10015d5d  zSUB                                  
10015de9  zMACC32                               
10015e69  zSUB32                                
10015eb5  zADD32                                
10015f0d  zMULT32                               
10015f81  mMULT                                 
10016551  mADD                                  
1001664d  mSUB                                  
10016749  mOUT                                  
10016975  ssp_KeyInit_Sw                        
10016979  sspAesEncrypt_Sw                      
10016985  sspKeyExpansion_Sw                    
10016a99  sspAesEncryptKeyExp_Sw                
10016af5  sspAesEncryptBasic_Sw                 
10016b79  RoundKey_Sw                           
10016c29  AddRoundKeySubBytes_Sw                
10016c45  ShiftRows_Sw                          
10016c79  MixColumns_Sw                         
10016d05  FFMult_Sw                             
10016d29  sspAesDecrypt_Sw                      
10016da1  InvAddRoundKey_Sw                     
10016dc9  InvRoundKey_Sw                        
10016e8d  InvSubBytes_Sw                        
10016ea1  InvShiftRows_Sw                       
10016ed5  InvMixColumns_Sw                      
10016f58  FFMult2                               
10017058  FFMult3                               
10017158  RCon                                  
10017164  Sbox                                  
10017264  InvSbox                               
10017365  SSP_CCM_Auth_Sw                       
100174fd  SSP_CCM_Encrypt_Sw                    
100175ed  SSP_CTR_Encrypt_Sw                    
1001767d  SSP_CCM_Decrypt_Sw                    
10017771  SSP_CTR_Decrypt_Sw                    
10017839  SSP_CCM_InvAuth_Sw                    
10017895  SSP_CCM_Auth_Encrypt_Sw               
100178f5  SSP_CCM_InvAuth_Decrypt_Sw            
10017959  ECC_allocWorkzone                     
10017961  ECC_setWin                            
10017969  ECDSA_sign                            
10017b01  ECDSA_verif                           
10017dbd  ECC_keyGen                            
10017ded  ECDH_commonKey                        
10017e39  SHA256_updateW                        
10017e75  SHA256_round                          
10017ef1  SHA256_nextState                      
10017f49  SHA256_saveBuffer                     
10017ffd  SHA256_init                           
10018019  SHA256_process                        
10018089  SHA256_final                          
10018129  SHA256_full                           
100182ad  RFHAL_InitRfHal                       
10018315  RFHAL_AllocRatChan                    
1001833d  RFHAL_FreeRatChan                     
10018369  RFHAL_MapRatChansToInt                
10018391  RFHAL_RegisterRatChanCallback         
100183b9  RFHAL_InitDataQueue                   
100183c5  RFHAL_QueueRFDataEntries              
10018415  RFHAL_AddTxDataEntry                  
10018485  RFHAL_FreeNextTxDataEntry             
100184a9  RFHAL_AllocDataEntryQueue             
100184c5  RFHAL_FreeDataEntryQueue              
100184cd  RFHAL_GetNextDataEntry                
100184d1  RFHAL_GetTempDataEntry                
100184d5  RFHAL_NextDataEntryDone               
100184f9  RFHAL_AllocDataEntry                  
10018549  RFHAL_FreeDataEntry                   
10018551  RFHAL_BuildRingBuffer                 
100185e1  RFHAL_BuildDataEntryRingBuffer        
10018669  RFHAL_BuildLinkedBuffer               
10018935  MB_ReadMailboxStatus                  
1001893d  MB_RegisterIsrCback                   
10018945  MB_FwDebugDump                        
10018a19  AesCcm_authEncrypt_Sw                 
10018a35  AesCcm_decryptAuth_Sw                 
10018a99  Aes_encrypt_Sw                        
10018ac5  Aes_decrypt_Sw                        
10018b09  AesCcm_getNumBlocks_Sw                
10018b0c  NIST256_p                             
10018b30  NIST256_r                             
10018b54  NIST256_a                             
10018b78  NIST256_b                             
10018b9c  NIST256_Gx                            
10018bc0  NIST256_Gy                            
10018ced  __exit                                
10018d6c  Fill1                                 
10019ffc  A3_rw                                 
10019ffd  __checksum_end_CommonROM              
10019ffe  A2_rw                                 
10019ffe  P1_ro_2                               
10019ffe  __checksum_CommonROM                  
200043d8  bleDispatch_TaskID                    
200043dc  hciExtSignCounter                     
20004430  rspBuf                                
20004468  baseTaskID                            
2000446c  cbTimers                              
20004618  LL_PM_RFCmdDoneEventCallback          
20004622  osal_entity                           
20004628  osal_qHead                            
2000462c  osal_eventloop_hook                   
20004630  osal_semaphore                        
20004634  osal_last_timestamp                   
20004638  osal_tickperiod                       
2000463c  osal_max_msecs                        
20004668  gapAppTaskID                          
20004669  gapProfileRole                        
2000466a  gapDeviceAddrMode                     
2000466b  gapAutoAdvPrivateAddrChange           
2000466c  gapPrivateAddrChangeTimeout           
200046a0  slaveUpdateReq                        
200046a8  slaveConnHandle                       
200046ac  pEstLink                              
200046b0  pAuthLink                             
200046b4  pfnCentralConnCBs                     
200046d4  l2capUserConfig                       
200046d8  l2capTaskID                           
200046d9  l2capNumChannels                      
200046da  l2capNumDataPkts                      
200046db  l2capNumPSM                           
200046dc  l2capNumCoChannels                    
200046e0  l2capChannels                         
200046e4  l2capPsm                              
200046f8  llUserConfig                          
20004708  gapTaskID                             
20004709  gapUnwantedTaskID                     
2000470c  pfnPeripheralCBs                      
2000473c  OSAL_timeSeconds                      
20004750  pwrmgr_initialized                    
20004752  pwrmgr_attribute                      
2000475c  l2capMtuSize                          
20004761  indTaskId                             
20004762  reqTaskId                             
20004763  gattAppTaskID                         
20004764  appTaskID                             
20004768  linkDBNumConns                        
200047a0  l2capFixedChannels                    
200047e8  GATTServApp_TaskID                    
200047f8  maxPduSize                            
200047f9  rfFeModeBias                          
200047fc  advInfoExt                            
20004800  maxQueuedPdu                          
20004804  llConnectionExt                       
20004808  activeConns                           
2000480c  SysBootMsg                            
20004810  sclkSrc                               
2000482c  pBleEvtMask                           
20004834  pHciEvtMask2                          
2000483c  ICall_dispatcher                      
20004840  ICall_enterCriticalSection            
20004844  ICall_leaveCriticalSection            
20004848  pPairingParams                        
2000484c  pfnResponderCBs                       
20004854  timerHead                             
20004874  linkCmd                               
20004878  linkParam                             
2000487c  pGapAdvertState                       
20004880  pGapDiscReq                           
20004884  pfnPeripheralConnCBs                  
2000488c  clientInfoTbl                         
20004890  serverInfoTbl                         
200048a0  tasksEvents                           
200048a6  gattNumConns                          
200048a7  gattTaskID                            
200048b1  nextConnId                            
200048b3  smTaskID                              
200048b4  hciTaskID                             
200048b5  hciL2capTaskID                        
200048b6  hciGapTaskID                          
200048b7  hciSmpTaskID                          
200048b8  hciTestTaskID                         
200048b9  hciExtTaskID                          
200048e8  A4_rw_1                               
200048e8  RAM_BASE_ADDR                         
200048fc  P2_zi_1                               
200048fc  scanDataEntry                         
200049dc  scanDataQueue                         
200049ec  advInfo                               
20004a8c  wlTable                               
20004b10  wlTableScan                           
20004b94  initDataEntry                         
20004bcc  initDataQueue                         
20004bdc  advDataEntry                          
20004c14  advDataQueue                          
20004c24  advCmd                                
20004c6c  ownPublicAddr                         
20004c74  ownRandomAddr                         
20004c7c  ownSavedPublicAddr                    
20004c84  LL_TaskID                             
20004c85  maxTxPwrForDTM                        
20004c86  onePktPerEvt                          
20004c87  numComplPktsLimit                     
20004c88  numComplPktsFlush                     
20004c89  slOverride                            
20004c8a  rxFifoFlowCtrl                        
20004c8b  numTxDataBufs                         
20004c8c  verInfo                               
20004c94  rfCfgAdiVal                           
20004c96  sleepDelay                            
20004c98  buildInfo                             
20004c9c  peerInfo                              
20004ca8  chanMapUpdate                         
20004cb0  llConns                               
20004cb8  llState                               
20004cb9  curTxPowerVal                         
20004cba  numComplPkts                          
20004cbb  fastTxRespTime                        
20004cbc  maxNumConns                           
20004cbe  postRfOperations                      
20004cc0  rssiCorrection                        
20004cc4  taskEndAction                         
20004cf0  initParam                             
20004d14  scanParam                             
20004d38  slvParam                              
20004d58  advParam                              
20004d78  txModemTestCmd                        
20004d94  scanInfo                              
20004db0  initCmd                               
20004dc8  connReqData                           
20004de0  slvCmd                                
20004df8  scanCmd                               
20004e10  scanOutput                            
20004e28  trxTestCmd                            
20004e40  rxModemTestCmd                        
20004e58  initInfo                              
20004e70  connOutput                            
20004e84  rxTestParam                           
20004e98  advOutput                             
20004ea8  txTestParam                           
20004eb8  initOutput                            
20004ec4  rxTestOut                             
20004ed0  deviceFeatureSet                      
20004edc  dtmInfo                               
20004ee8  cachedTRNGdata                        
20004ef4  llTaskList                            
20004f00  pHciEvtMask                           
20004f08  bleEvtMask                            
20004f0a  taskEndStatus                         
20004f0c  rxDataQ                               
20004f10  rxRingBuf                             
20004f14  mstCmd                                
20004f18  mstParam                              
20004f1c  txDataQ                               
20004f20  txTestOut                             
20004f24  ctrlToHostEnable                      
20004f26  numHostBufs                           
20004f28  hciPTMenabled                         
20004f2c  A4_rw                                 
20004f2c  COMMON_RAM_BASE_ADDR                  
20004f40  P2_rw                                 
20004f40  P2_s0                                 
20004f40  win                                   
20004f44  workzone                              
20004f48  data_p                                
20004f4c  data_r                                
20004f50  data_a                                
20004f54  inScalar                              
20004f58  inPointX                              
20004f5c  inPointY                              
20004f60  outPointX                             
20004f64  outPointY                             
20004f68  SCAL                                  
20004f6c  EXPX                                  
20004f70  EXPY                                  
20004f74  EXPZ                                  
20004f78  EXPW                                  
20004f7c  ACCX                                  
20004f80  ACCY                                  
20004f84  ACCZ                                  
20004f88  TMP1                                  
20004f8c  TMP2                                  
20004f90  TMP3                                  
20004f94  TMP4                                  
20004f98  TMP5                                  
20004f9c  TMP6                                  
20004fa0  data_Gx                               
20004fa4  data_Gy                               
20004fa8  data_b                                
20004fac  P2_zi                                 
20004fac  ratChanInfo                           
20004fcc  fwInfoCmd                             
20004fd8  MSBMOD                                
20004fdc  aux64                                 
20004fe4  MOD                                   
20004fe8  LEN                                   
20004fec  mbIntCbackTable                       
20004ffc  pSspAesEncrypt_Sw                     
ffffffff  __TI_pprof_out_hndl                   
ffffffff  __TI_prof_data_size                   
ffffffff  __TI_prof_data_start                  
ffffffff  __binit__                             
ffffffff  __c_args__                            
ffffffff  binit                                 
UNDEFED   SHT$$INIT_ARRAY$$Base                 
UNDEFED   SHT$$INIT_ARRAY$$Limit                

[1380 symbols]
